ARM GAS  C:\Users\Miruna\AppData\Local\Temp\ccbGg7G6.s 			page 1


   1              		.cpu cortex-m3
   2              		.arch armv7-m
   3              		.fpu softvfp
   4              		.eabi_attribute 20, 1
   5              		.eabi_attribute 21, 1
   6              		.eabi_attribute 23, 3
   7              		.eabi_attribute 24, 1
   8              		.eabi_attribute 25, 1
   9              		.eabi_attribute 26, 1
  10              		.eabi_attribute 30, 1
  11              		.eabi_attribute 34, 1
  12              		.eabi_attribute 18, 4
  13              		.file	"main.c"
  14              		.text
  15              	.Ltext0:
  16              		.cfi_sections	.debug_frame
  17              		.file 1 "Core/Src/main.c"
  18              		.section	.text.MX_GPIO_Init,"ax",%progbits
  19              		.align	1
  20              		.syntax unified
  21              		.thumb
  22              		.thumb_func
  24              	MX_GPIO_Init:
  25              	.LFB75:
   1:Core/Src/main.c **** /* USER CODE BEGIN Header */
   2:Core/Src/main.c **** /**
   3:Core/Src/main.c ****   ******************************************************************************
   4:Core/Src/main.c ****   * @file           : main.c
   5:Core/Src/main.c ****   * @brief          : Main program body
   6:Core/Src/main.c ****   ******************************************************************************
   7:Core/Src/main.c ****   * @attention
   8:Core/Src/main.c ****   *
   9:Core/Src/main.c ****   * Copyright (c) 2025 STMicroelectronics.
  10:Core/Src/main.c ****   * All rights reserved.
  11:Core/Src/main.c ****   *
  12:Core/Src/main.c ****   * This software is licensed under terms that can be found in the LICENSE file
  13:Core/Src/main.c ****   * in the root directory of this software component.
  14:Core/Src/main.c ****   * If no LICENSE file comes with this software, it is provided AS-IS.
  15:Core/Src/main.c ****   *
  16:Core/Src/main.c ****   ******************************************************************************
  17:Core/Src/main.c ****   */
  18:Core/Src/main.c **** /* USER CODE END Header */
  19:Core/Src/main.c **** /* Includes ------------------------------------------------------------------*/
  20:Core/Src/main.c **** #include "main.h"
  21:Core/Src/main.c **** 
  22:Core/Src/main.c **** /* Private includes ----------------------------------------------------------*/
  23:Core/Src/main.c **** /* USER CODE BEGIN Includes */
  24:Core/Src/main.c **** 
  25:Core/Src/main.c **** #include <stdio.h>
  26:Core/Src/main.c **** #include <math.h>
  27:Core/Src/main.c **** 
  28:Core/Src/main.c **** 
  29:Core/Src/main.c **** /* USER CODE END Includes */
  30:Core/Src/main.c **** 
  31:Core/Src/main.c **** /* Private typedef -----------------------------------------------------------*/
  32:Core/Src/main.c **** /* USER CODE BEGIN PTD */
  33:Core/Src/main.c **** 
ARM GAS  C:\Users\Miruna\AppData\Local\Temp\ccbGg7G6.s 			page 2


  34:Core/Src/main.c **** /* USER CODE END PTD */
  35:Core/Src/main.c **** 
  36:Core/Src/main.c **** /* Private define ------------------------------------------------------------*/
  37:Core/Src/main.c **** /* USER CODE BEGIN PD */
  38:Core/Src/main.c **** 
  39:Core/Src/main.c **** /* USER CODE END PD */
  40:Core/Src/main.c **** 
  41:Core/Src/main.c **** /* Private macro -------------------------------------------------------------*/
  42:Core/Src/main.c **** /* USER CODE BEGIN PM */
  43:Core/Src/main.c **** 
  44:Core/Src/main.c **** /* USER CODE END PM */
  45:Core/Src/main.c **** 
  46:Core/Src/main.c **** /* Private variables ---------------------------------------------------------*/
  47:Core/Src/main.c **** ADC_HandleTypeDef hadc1;
  48:Core/Src/main.c **** 
  49:Core/Src/main.c **** UART_HandleTypeDef huart1;
  50:Core/Src/main.c **** 
  51:Core/Src/main.c **** PCD_HandleTypeDef hpcd_USB_FS;
  52:Core/Src/main.c **** 
  53:Core/Src/main.c **** /* USER CODE BEGIN PV */
  54:Core/Src/main.c **** 
  55:Core/Src/main.c **** 
  56:Core/Src/main.c **** uint32_t adc_raw[3]={0,0,0}; // Buffer pentru citirea valorilor ADC (3 canale)
  57:Core/Src/main.c **** float adc_volt[3]; // Buffer pentru conversia valorilor ADC in volti (3 canale)
  58:Core/Src/main.c **** float adc_acc[3]; // Buffer pentru conversia valorilor ADC in acceleratie (3 canale)
  59:Core/Src/main.c **** float unghi[3]={0,0,0}; // Buffer pentru unghiurile de inclinare (3 canale)
  60:Core/Src/main.c **** float offset[3]={0,0,0}; // Buffer pentru offseturile ADC (3 canale)
  61:Core/Src/main.c **** 
  62:Core/Src/main.c **** float delta_t[3]={0,0,0}; // Buffer pentru timpul de citire a valorilor ADC (3 canale)
  63:Core/Src/main.c **** 
  64:Core/Src/main.c **** 
  65:Core/Src/main.c **** float gyro[3]={0,0,0}; // Buffer pentru valorile gyroscopului (3 canale)
  66:Core/Src/main.c ****   
  67:Core/Src/main.c **** float unghi_anterior[3]={0,0,0}; // Buffer pentru unghiurile de inclinare (3 canale)
  68:Core/Src/main.c **** 
  69:Core/Src/main.c **** 
  70:Core/Src/main.c **** uint32_t time_prev[3]={0,0,0}; // Timpul anterior
  71:Core/Src/main.c **** /* USER CODE END PV */
  72:Core/Src/main.c **** 
  73:Core/Src/main.c **** /* Private function prototypes -----------------------------------------------*/
  74:Core/Src/main.c **** void SystemClock_Config(void);
  75:Core/Src/main.c **** static void MX_GPIO_Init(void);
  76:Core/Src/main.c **** static void MX_ADC1_Init(void);
  77:Core/Src/main.c **** static void MX_USART1_UART_Init(void);
  78:Core/Src/main.c **** static void MX_USB_PCD_Init(void);
  79:Core/Src/main.c **** /* USER CODE BEGIN PFP */
  80:Core/Src/main.c **** 
  81:Core/Src/main.c **** /* USER CODE END PFP */
  82:Core/Src/main.c **** 
  83:Core/Src/main.c **** /* Private user code ---------------------------------------------------------*/
  84:Core/Src/main.c **** /* USER CODE BEGIN 0 */
  85:Core/Src/main.c **** 
  86:Core/Src/main.c **** 
  87:Core/Src/main.c **** ////SCRIS DE MINE
  88:Core/Src/main.c **** 
  89:Core/Src/main.c **** 
  90:Core/Src/main.c **** 
ARM GAS  C:\Users\Miruna\AppData\Local\Temp\ccbGg7G6.s 			page 3


  91:Core/Src/main.c **** 
  92:Core/Src/main.c **** 
  93:Core/Src/main.c **** 
  94:Core/Src/main.c **** 
  95:Core/Src/main.c **** 
  96:Core/Src/main.c **** 
  97:Core/Src/main.c **** 
  98:Core/Src/main.c **** 
  99:Core/Src/main.c **** // Redefinirea funcției printf pentru a funcționa cu HAL_UART_Transmit
 100:Core/Src/main.c **** // Aceasta permite folosirea directă a printf în loc de HAL_UART_Transmit()
 101:Core/Src/main.c **** // Utile pentru debug și transmiterea datelor senzorilor
 102:Core/Src/main.c **** 
 103:Core/Src/main.c **** #ifdef __GNUC__
 104:Core/Src/main.c **** #define PUTCHAR_PROTOTYPE int __io_putchar(int ch) 
 105:Core/Src/main.c **** #else
 106:Core/Src/main.c **** #define PUTCHAR_PROTOTYPE int fputc(int ch, FILE *f)
 107:Core/Src/main.c **** #endif
 108:Core/Src/main.c **** 
 109:Core/Src/main.c **** 
 110:Core/Src/main.c **** 
 111:Core/Src/main.c **** PUTCHAR_PROTOTYPE
 112:Core/Src/main.c **** {
 113:Core/Src/main.c ****   HAL_UART_Transmit(&huart1, (uint8_t *)&ch, 1, HAL_MAX_DELAY);
 114:Core/Src/main.c ****   return ch;
 115:Core/Src/main.c **** }
 116:Core/Src/main.c **** 
 117:Core/Src/main.c **** int _write(int fd, char *ptr, int len)
 118:Core/Src/main.c **** {
 119:Core/Src/main.c ****   HAL_UART_Transmit(&huart1, (uint8_t *) ptr, len, HAL_MAX_DELAY);
 120:Core/Src/main.c ****   return len;
 121:Core/Src/main.c **** }
 122:Core/Src/main.c **** 
 123:Core/Src/main.c **** 
 124:Core/Src/main.c **** /* USER CODE END 0 */
 125:Core/Src/main.c **** 
 126:Core/Src/main.c **** /**
 127:Core/Src/main.c ****   * @brief  The application entry point.
 128:Core/Src/main.c ****   * @retval int
 129:Core/Src/main.c ****   */
 130:Core/Src/main.c **** int main(void)
 131:Core/Src/main.c **** {
 132:Core/Src/main.c **** 
 133:Core/Src/main.c ****   /* USER CODE BEGIN 1 */
 134:Core/Src/main.c ****   
 135:Core/Src/main.c ****   // Initializeaza offseturile cu media valorilor ADC
 136:Core/Src/main.c ****   /* USER CODE END 1 */
 137:Core/Src/main.c **** 
 138:Core/Src/main.c ****   /* MCU Configuration--------------------------------------------------------*/
 139:Core/Src/main.c **** 
 140:Core/Src/main.c ****   /* Reset of all peripherals, Initializes the Flash interface and the Systick. */
 141:Core/Src/main.c ****   HAL_Init(); // Inițializează HAL (Hardware Abstraction Layer)
 142:Core/Src/main.c **** 
 143:Core/Src/main.c ****   /* USER CODE BEGIN Init */
 144:Core/Src/main.c **** 
 145:Core/Src/main.c ****   /* USER CODE END Init */
 146:Core/Src/main.c **** 
 147:Core/Src/main.c ****   /* Configure the system clock */
ARM GAS  C:\Users\Miruna\AppData\Local\Temp\ccbGg7G6.s 			page 4


 148:Core/Src/main.c ****   SystemClock_Config(); // Configurează ceasul sistemului (PLL, frecvențe periferice)
 149:Core/Src/main.c **** 
 150:Core/Src/main.c ****   /* USER CODE BEGIN SysInit */
 151:Core/Src/main.c ****   
 152:Core/Src/main.c ****   /* USER CODE END SysInit */
 153:Core/Src/main.c **** 
 154:Core/Src/main.c ****   /* Initialize all configured peripherals */
 155:Core/Src/main.c ****   MX_GPIO_Init();  // Inițializează pinii GPIO
 156:Core/Src/main.c ****   MX_ADC1_Init();   // Inițializează convertorul analog-digital (ADC)
 157:Core/Src/main.c ****   MX_USART1_UART_Init(); // Inițializează UART-ul pentru comunicare serială
 158:Core/Src/main.c ****   MX_USB_PCD_Init(); // Inițializează USB 
 159:Core/Src/main.c ****   /* USER CODE BEGIN 2 */
 160:Core/Src/main.c ****   // Inițializezi offseturile cu 0
 161:Core/Src/main.c **** 
 162:Core/Src/main.c **** 
 163:Core/Src/main.c **** 
 164:Core/Src/main.c **** //////SCRIS DE MINE
 165:Core/Src/main.c **** 
 166:Core/Src/main.c **** //////SCRIS DE MINE
 167:Core/Src/main.c **** for (int i = 0; i < 3; i++) offset[i] = 0;
 168:Core/Src/main.c **** for (int n = 0; n < 100; n++) {
 169:Core/Src/main.c ****     for (int i = 0; i < 3; i++) {
 170:Core/Src/main.c ****         HAL_ADC_Start(&hadc1);
 171:Core/Src/main.c ****         HAL_ADC_PollForConversion(&hadc1, 1);
 172:Core/Src/main.c ****         offset[i] += HAL_ADC_GetValue(&hadc1);
 173:Core/Src/main.c ****     }
 174:Core/Src/main.c **** }
 175:Core/Src/main.c **** for (int i = 0; i < 3; i++) 
 176:Core/Src/main.c **** {offset[i] /= 100.0f;
 177:Core/Src/main.c **** offset[i] = (offset[i] * 3.3f) / 4095.0f; // Conversie la voltaj
 178:Core/Src/main.c **** printf("Offset %d: %.3f V\r\n", i, offset[i]);
 179:Core/Src/main.c **** }
 180:Core/Src/main.c **** offset[2]=(offset[0]+offset[1])/2.0f; // Offset pentru Z
 181:Core/Src/main.c ****   /* USER CODE END 2 */
 182:Core/Src/main.c **** 
 183:Core/Src/main.c ****   /* Infinite loop */
 184:Core/Src/main.c ****   /* USER CODE BEGIN WHILE */
 185:Core/Src/main.c ****   while (1)
 186:Core/Src/main.c ****   {
 187:Core/Src/main.c **** 
 188:Core/Src/main.c **** 
 189:Core/Src/main.c **** 
 190:Core/Src/main.c **** 
 191:Core/Src/main.c **** 
 192:Core/Src/main.c ****     /* USER CODE END WHILE */
 193:Core/Src/main.c **** 
 194:Core/Src/main.c ****     /* USER CODE BEGIN 3 */
 195:Core/Src/main.c **** 
 196:Core/Src/main.c **** 
 197:Core/Src/main.c ****   for (int i = 0; i < 3; ++i)
 198:Core/Src/main.c ****     {
 199:Core/Src/main.c ****         // 1. Citire ADC
 200:Core/Src/main.c ****         HAL_ADC_Start(&hadc1); // Incepe conversia ADC
 201:Core/Src/main.c ****         HAL_ADC_PollForConversion(&hadc1, 1); // Asteapta conversia
 202:Core/Src/main.c ****         adc_raw[i] = HAL_ADC_GetValue(&hadc1); // Citeste valoarea ADC
 203:Core/Src/main.c **** 
 204:Core/Src/main.c ****         // 2. Conversie la voltaj
ARM GAS  C:\Users\Miruna\AppData\Local\Temp\ccbGg7G6.s 			page 5


 205:Core/Src/main.c ****         adc_volt[i] = (adc_raw[i] * 3.3f) / 4095.0f; // Conversie la voltaj (cu referință 3.3V fi
 206:Core/Src/main.c **** 
 207:Core/Src/main.c **** 
 208:Core/Src/main.c ****         // 3. Conversie la acceleratie (g)
 209:Core/Src/main.c ****         
 210:Core/Src/main.c ****         adc_acc[i] = (adc_volt[i] - offset[i]) / 0.33f;  // Conversie la accelerație (g) – 0.33V
 211:Core/Src/main.c **** 
 212:Core/Src/main.c **** 
 213:Core/Src/main.c ****         // 4. Calcul unghi (grade)
 214:Core/Src/main.c ****         unghi_anterior[i] = unghi[i];
 215:Core/Src/main.c ****         // Pentru X și Y folosește formula clasică de tilt (atenție la axa de referință!)
 216:Core/Src/main.c ****         if (i == 0)
 217:Core/Src/main.c ****             unghi[i] = atan(adc_acc[0]/adc_acc[2]) * 180.0f / 3.1415f; // Roll (X)
 218:Core/Src/main.c ****         else if (i == 1)
 219:Core/Src/main.c ****             unghi[i] = atan(adc_acc[1]/adc_acc[2]) * 180.0f / 3.1415f; // Pitch (Y)
 220:Core/Src/main.c ****         
 221:Core/Src/main.c ****         // 5. Calcul timp (ms)
 222:Core/Src/main.c ****         uint32_t time_now = HAL_GetTick(); // Obține timpul curent în milisecunde
 223:Core/Src/main.c ****         delta_t[i] = time_now - time_prev[i]; // Calculează diferența de timp
 224:Core/Src/main.c ****         time_prev[i] = time_now; // Salvează timpul curent pentru următoarea iterație
 225:Core/Src/main.c ****         
 226:Core/Src/main.c ****         HAL_Delay(100); // Delay pentru a evita citirea prea rapida a ADC-ului
 227:Core/Src/main.c ****         // 6. Calcul viteza unghiulara (grade/secunda)
 228:Core/Src/main.c ****         if (delta_t[i] > 0)
 229:Core/Src/main.c ****             gyro[i] = (unghi[i] - unghi_anterior[i]) / (delta_t[i] / 1000.0f); // Calcul viteza ung
 230:Core/Src/main.c **** 
 231:Core/Src/main.c ****         else
 232:Core/Src/main.c ****             gyro[i] = 0;
 233:Core/Src/main.c ****     }
 234:Core/Src/main.c **** 
 235:Core/Src/main.c ****     // Afisare CLARA
 236:Core/Src/main.c ****     HAL_Delay(1000);
 237:Core/Src/main.c ****     printf("RAW   -> X: %lu  Y: %lu  Z: %lu\r\n", adc_raw[0], adc_raw[1], adc_raw[2]);
 238:Core/Src/main.c ****    
 239:Core/Src/main.c ****     printf("VOLT  -> X: %.3f V  Y: %.3f V  Z: %.3f V\r\n", adc_volt[0], adc_volt[1], adc_volt[2]);
 240:Core/Src/main.c ****     
 241:Core/Src/main.c ****     printf("ACCEL -> X: %.3f g  Y: %.3f g  Z: %.3f g\r\n", adc_acc[0], adc_acc[1], adc_acc[2]);
 242:Core/Src/main.c ****     HAL_Delay(100);
 243:Core/Src/main.c ****     printf("ANGLE -> X: %.2f°   Y: %.2f°   Z: %.2f°\r\n", unghi[0], unghi[1], unghi[2]);
 244:Core/Src/main.c ****     
 245:Core/Src/main.c ****     printf("GYRO  -> X: %.2f dps Y: %.4f dps Z: %.4f dps\r\n", gyro[0], gyro[1], gyro[2]);
 246:Core/Src/main.c ****     printf("--------------------------------------------------\r\n");
 247:Core/Src/main.c **** 
 248:Core/Src/main.c ****     HAL_Delay(1000); // Poți ajusta delay-ul după nevoie
 249:Core/Src/main.c **** 
 250:Core/Src/main.c **** 
 251:Core/Src/main.c **** 
 252:Core/Src/main.c ****   }
 253:Core/Src/main.c ****   /* USER CODE END 3 */
 254:Core/Src/main.c **** }
 255:Core/Src/main.c **** 
 256:Core/Src/main.c **** /**
 257:Core/Src/main.c ****   * @brief System Clock Configuration
 258:Core/Src/main.c ****   * @retval None
 259:Core/Src/main.c ****   */
 260:Core/Src/main.c **** void SystemClock_Config(void)
 261:Core/Src/main.c **** {
ARM GAS  C:\Users\Miruna\AppData\Local\Temp\ccbGg7G6.s 			page 6


 262:Core/Src/main.c ****   RCC_OscInitTypeDef RCC_OscInitStruct = {0};
 263:Core/Src/main.c ****   RCC_ClkInitTypeDef RCC_ClkInitStruct = {0};
 264:Core/Src/main.c ****   RCC_PeriphCLKInitTypeDef PeriphClkInit = {0};
 265:Core/Src/main.c **** 
 266:Core/Src/main.c ****   /** Initializes the RCC Oscillators according to the specified parameters
 267:Core/Src/main.c ****   * in the RCC_OscInitTypeDef structure.
 268:Core/Src/main.c ****   */
 269:Core/Src/main.c ****   RCC_OscInitStruct.OscillatorType = RCC_OSCILLATORTYPE_HSE;
 270:Core/Src/main.c ****   RCC_OscInitStruct.HSEState = RCC_HSE_ON;
 271:Core/Src/main.c ****   RCC_OscInitStruct.HSEPredivValue = RCC_HSE_PREDIV_DIV1;
 272:Core/Src/main.c ****   RCC_OscInitStruct.HSIState = RCC_HSI_ON;
 273:Core/Src/main.c ****   RCC_OscInitStruct.PLL.PLLState = RCC_PLL_ON;
 274:Core/Src/main.c ****   RCC_OscInitStruct.PLL.PLLSource = RCC_PLLSOURCE_HSE;
 275:Core/Src/main.c ****   RCC_OscInitStruct.PLL.PLLMUL = RCC_PLL_MUL9;
 276:Core/Src/main.c ****   if (HAL_RCC_OscConfig(&RCC_OscInitStruct) != HAL_OK)
 277:Core/Src/main.c ****   {
 278:Core/Src/main.c ****     Error_Handler();
 279:Core/Src/main.c ****   }
 280:Core/Src/main.c **** 
 281:Core/Src/main.c ****   /** Initializes the CPU, AHB and APB buses clocks
 282:Core/Src/main.c ****   */
 283:Core/Src/main.c ****   RCC_ClkInitStruct.ClockType = RCC_CLOCKTYPE_HCLK|RCC_CLOCKTYPE_SYSCLK
 284:Core/Src/main.c ****                               |RCC_CLOCKTYPE_PCLK1|RCC_CLOCKTYPE_PCLK2;
 285:Core/Src/main.c ****   RCC_ClkInitStruct.SYSCLKSource = RCC_SYSCLKSOURCE_PLLCLK;
 286:Core/Src/main.c ****   RCC_ClkInitStruct.AHBCLKDivider = RCC_SYSCLK_DIV1;
 287:Core/Src/main.c ****   RCC_ClkInitStruct.APB1CLKDivider = RCC_HCLK_DIV2;
 288:Core/Src/main.c ****   RCC_ClkInitStruct.APB2CLKDivider = RCC_HCLK_DIV1;
 289:Core/Src/main.c **** 
 290:Core/Src/main.c ****   if (HAL_RCC_ClockConfig(&RCC_ClkInitStruct, FLASH_LATENCY_2) != HAL_OK)
 291:Core/Src/main.c ****   {
 292:Core/Src/main.c ****     Error_Handler();
 293:Core/Src/main.c ****   }
 294:Core/Src/main.c ****   PeriphClkInit.PeriphClockSelection = RCC_PERIPHCLK_ADC|RCC_PERIPHCLK_USB;
 295:Core/Src/main.c ****   PeriphClkInit.AdcClockSelection = RCC_ADCPCLK2_DIV6;
 296:Core/Src/main.c ****   PeriphClkInit.UsbClockSelection = RCC_USBCLKSOURCE_PLL_DIV1_5;
 297:Core/Src/main.c ****   if (HAL_RCCEx_PeriphCLKConfig(&PeriphClkInit) != HAL_OK)
 298:Core/Src/main.c ****   {
 299:Core/Src/main.c ****     Error_Handler();
 300:Core/Src/main.c ****   }
 301:Core/Src/main.c **** }
 302:Core/Src/main.c **** 
 303:Core/Src/main.c **** /**
 304:Core/Src/main.c ****   * @brief ADC1 Initialization Function
 305:Core/Src/main.c ****   * @param None
 306:Core/Src/main.c ****   * @retval None
 307:Core/Src/main.c ****   */
 308:Core/Src/main.c **** static void MX_ADC1_Init(void)
 309:Core/Src/main.c **** {
 310:Core/Src/main.c **** 
 311:Core/Src/main.c ****   /* USER CODE BEGIN ADC1_Init 0 */
 312:Core/Src/main.c **** 
 313:Core/Src/main.c ****   /* USER CODE END ADC1_Init 0 */
 314:Core/Src/main.c **** 
 315:Core/Src/main.c ****   ADC_ChannelConfTypeDef sConfig = {0};
 316:Core/Src/main.c **** 
 317:Core/Src/main.c ****   /* USER CODE BEGIN ADC1_Init 1 */
 318:Core/Src/main.c **** 
ARM GAS  C:\Users\Miruna\AppData\Local\Temp\ccbGg7G6.s 			page 7


 319:Core/Src/main.c ****   /* USER CODE END ADC1_Init 1 */
 320:Core/Src/main.c **** 
 321:Core/Src/main.c ****   /** Common config
 322:Core/Src/main.c ****   */
 323:Core/Src/main.c ****   hadc1.Instance = ADC1;
 324:Core/Src/main.c ****   hadc1.Init.ScanConvMode = ADC_SCAN_ENABLE;
 325:Core/Src/main.c ****   hadc1.Init.ContinuousConvMode = DISABLE;
 326:Core/Src/main.c ****   hadc1.Init.DiscontinuousConvMode = ENABLE;
 327:Core/Src/main.c ****   hadc1.Init.NbrOfDiscConversion = 1;
 328:Core/Src/main.c ****   hadc1.Init.ExternalTrigConv = ADC_SOFTWARE_START;
 329:Core/Src/main.c ****   hadc1.Init.DataAlign = ADC_DATAALIGN_RIGHT;
 330:Core/Src/main.c ****   hadc1.Init.NbrOfConversion = 3;
 331:Core/Src/main.c ****   if (HAL_ADC_Init(&hadc1) != HAL_OK)
 332:Core/Src/main.c ****   {
 333:Core/Src/main.c ****     Error_Handler();
 334:Core/Src/main.c ****   }
 335:Core/Src/main.c **** 
 336:Core/Src/main.c ****   /** Configure Regular Channel
 337:Core/Src/main.c ****   */
 338:Core/Src/main.c ****   sConfig.Channel = ADC_CHANNEL_1;
 339:Core/Src/main.c ****   sConfig.Rank = ADC_REGULAR_RANK_1;
 340:Core/Src/main.c ****   sConfig.SamplingTime = ADC_SAMPLETIME_1CYCLE_5;
 341:Core/Src/main.c ****   if (HAL_ADC_ConfigChannel(&hadc1, &sConfig) != HAL_OK)
 342:Core/Src/main.c ****   {
 343:Core/Src/main.c ****     Error_Handler();
 344:Core/Src/main.c ****   }
 345:Core/Src/main.c **** 
 346:Core/Src/main.c ****   /** Configure Regular Channel
 347:Core/Src/main.c ****   */
 348:Core/Src/main.c ****   sConfig.Channel = ADC_CHANNEL_4;
 349:Core/Src/main.c ****   sConfig.Rank = ADC_REGULAR_RANK_2;
 350:Core/Src/main.c ****   if (HAL_ADC_ConfigChannel(&hadc1, &sConfig) != HAL_OK)
 351:Core/Src/main.c ****   {
 352:Core/Src/main.c ****     Error_Handler();
 353:Core/Src/main.c ****   }
 354:Core/Src/main.c **** 
 355:Core/Src/main.c ****   /** Configure Regular Channel
 356:Core/Src/main.c ****   */
 357:Core/Src/main.c ****   sConfig.Channel = ADC_CHANNEL_7;
 358:Core/Src/main.c ****   sConfig.Rank = ADC_REGULAR_RANK_3;
 359:Core/Src/main.c ****   if (HAL_ADC_ConfigChannel(&hadc1, &sConfig) != HAL_OK)
 360:Core/Src/main.c ****   {
 361:Core/Src/main.c ****     Error_Handler();
 362:Core/Src/main.c ****   }
 363:Core/Src/main.c ****   /* USER CODE BEGIN ADC1_Init 2 */
 364:Core/Src/main.c **** 
 365:Core/Src/main.c ****   /* USER CODE END ADC1_Init 2 */
 366:Core/Src/main.c **** 
 367:Core/Src/main.c **** }
 368:Core/Src/main.c **** 
 369:Core/Src/main.c **** /**
 370:Core/Src/main.c ****   * @brief USART1 Initialization Function
 371:Core/Src/main.c ****   * @param None
 372:Core/Src/main.c ****   * @retval None
 373:Core/Src/main.c ****   */
 374:Core/Src/main.c **** static void MX_USART1_UART_Init(void)
 375:Core/Src/main.c **** {
ARM GAS  C:\Users\Miruna\AppData\Local\Temp\ccbGg7G6.s 			page 8


 376:Core/Src/main.c **** 
 377:Core/Src/main.c ****   /* USER CODE BEGIN USART1_Init 0 */
 378:Core/Src/main.c **** 
 379:Core/Src/main.c ****   /* USER CODE END USART1_Init 0 */
 380:Core/Src/main.c **** 
 381:Core/Src/main.c ****   /* USER CODE BEGIN USART1_Init 1 */
 382:Core/Src/main.c **** 
 383:Core/Src/main.c ****   /* USER CODE END USART1_Init 1 */
 384:Core/Src/main.c ****   huart1.Instance = USART1;
 385:Core/Src/main.c ****   huart1.Init.BaudRate = 9600;
 386:Core/Src/main.c ****   huart1.Init.WordLength = UART_WORDLENGTH_8B;
 387:Core/Src/main.c ****   huart1.Init.StopBits = UART_STOPBITS_1;
 388:Core/Src/main.c ****   huart1.Init.Parity = UART_PARITY_NONE;
 389:Core/Src/main.c ****   huart1.Init.Mode = UART_MODE_TX_RX;
 390:Core/Src/main.c ****   huart1.Init.HwFlowCtl = UART_HWCONTROL_NONE;
 391:Core/Src/main.c ****   huart1.Init.OverSampling = UART_OVERSAMPLING_16;
 392:Core/Src/main.c ****   if (HAL_UART_Init(&huart1) != HAL_OK)
 393:Core/Src/main.c ****   {
 394:Core/Src/main.c ****     Error_Handler();
 395:Core/Src/main.c ****   }
 396:Core/Src/main.c ****   /* USER CODE BEGIN USART1_Init 2 */
 397:Core/Src/main.c **** 
 398:Core/Src/main.c ****   /* USER CODE END USART1_Init 2 */
 399:Core/Src/main.c **** 
 400:Core/Src/main.c **** }
 401:Core/Src/main.c **** 
 402:Core/Src/main.c **** /**
 403:Core/Src/main.c ****   * @brief USB Initialization Function
 404:Core/Src/main.c ****   * @param None
 405:Core/Src/main.c ****   * @retval None
 406:Core/Src/main.c ****   */
 407:Core/Src/main.c **** static void MX_USB_PCD_Init(void)
 408:Core/Src/main.c **** {
 409:Core/Src/main.c **** 
 410:Core/Src/main.c ****   /* USER CODE BEGIN USB_Init 0 */
 411:Core/Src/main.c **** 
 412:Core/Src/main.c ****   /* USER CODE END USB_Init 0 */
 413:Core/Src/main.c **** 
 414:Core/Src/main.c ****   /* USER CODE BEGIN USB_Init 1 */
 415:Core/Src/main.c **** 
 416:Core/Src/main.c ****   /* USER CODE END USB_Init 1 */
 417:Core/Src/main.c ****   hpcd_USB_FS.Instance = USB;
 418:Core/Src/main.c ****   hpcd_USB_FS.Init.dev_endpoints = 8;
 419:Core/Src/main.c ****   hpcd_USB_FS.Init.speed = PCD_SPEED_FULL;
 420:Core/Src/main.c ****   hpcd_USB_FS.Init.low_power_enable = DISABLE;
 421:Core/Src/main.c ****   hpcd_USB_FS.Init.lpm_enable = DISABLE;
 422:Core/Src/main.c ****   hpcd_USB_FS.Init.battery_charging_enable = DISABLE;
 423:Core/Src/main.c ****   if (HAL_PCD_Init(&hpcd_USB_FS) != HAL_OK)
 424:Core/Src/main.c ****   {
 425:Core/Src/main.c ****     Error_Handler();
 426:Core/Src/main.c ****   }
 427:Core/Src/main.c ****   /* USER CODE BEGIN USB_Init 2 */
 428:Core/Src/main.c **** 
 429:Core/Src/main.c ****   /* USER CODE END USB_Init 2 */
 430:Core/Src/main.c **** 
 431:Core/Src/main.c **** }
 432:Core/Src/main.c **** 
ARM GAS  C:\Users\Miruna\AppData\Local\Temp\ccbGg7G6.s 			page 9


 433:Core/Src/main.c **** /**
 434:Core/Src/main.c ****   * @brief GPIO Initialization Function
 435:Core/Src/main.c ****   * @param None
 436:Core/Src/main.c ****   * @retval None
 437:Core/Src/main.c ****   */
 438:Core/Src/main.c **** static void MX_GPIO_Init(void)
 439:Core/Src/main.c **** {
  26              		.loc 1 439 1 view -0
  27              		.cfi_startproc
  28              		@ args = 0, pretend = 0, frame = 8
  29              		@ frame_needed = 0, uses_anonymous_args = 0
  30              		@ link register save eliminated.
  31 0000 82B0     		sub	sp, sp, #8
  32              	.LCFI0:
  33              		.cfi_def_cfa_offset 8
 440:Core/Src/main.c ****   /* USER CODE BEGIN MX_GPIO_Init_1 */
 441:Core/Src/main.c **** 
 442:Core/Src/main.c ****   /* USER CODE END MX_GPIO_Init_1 */
 443:Core/Src/main.c **** 
 444:Core/Src/main.c ****   /* GPIO Ports Clock Enable */
 445:Core/Src/main.c ****   __HAL_RCC_GPIOD_CLK_ENABLE();
  34              		.loc 1 445 3 view .LVU1
  35              	.LBB4:
  36              		.loc 1 445 3 view .LVU2
  37              		.loc 1 445 3 view .LVU3
  38 0002 0A4B     		ldr	r3, .L3
  39 0004 9A69     		ldr	r2, [r3, #24]
  40 0006 42F02002 		orr	r2, r2, #32
  41 000a 9A61     		str	r2, [r3, #24]
  42              		.loc 1 445 3 view .LVU4
  43 000c 9A69     		ldr	r2, [r3, #24]
  44 000e 02F02002 		and	r2, r2, #32
  45 0012 0092     		str	r2, [sp]
  46              		.loc 1 445 3 view .LVU5
  47 0014 009A     		ldr	r2, [sp]
  48              	.LBE4:
  49              		.loc 1 445 3 view .LVU6
 446:Core/Src/main.c ****   __HAL_RCC_GPIOA_CLK_ENABLE();
  50              		.loc 1 446 3 view .LVU7
  51              	.LBB5:
  52              		.loc 1 446 3 view .LVU8
  53              		.loc 1 446 3 view .LVU9
  54 0016 9A69     		ldr	r2, [r3, #24]
  55 0018 42F00402 		orr	r2, r2, #4
  56 001c 9A61     		str	r2, [r3, #24]
  57              		.loc 1 446 3 view .LVU10
  58 001e 9B69     		ldr	r3, [r3, #24]
  59 0020 03F00403 		and	r3, r3, #4
  60 0024 0193     		str	r3, [sp, #4]
  61              		.loc 1 446 3 view .LVU11
  62 0026 019B     		ldr	r3, [sp, #4]
  63              	.LBE5:
  64              		.loc 1 446 3 view .LVU12
 447:Core/Src/main.c **** 
 448:Core/Src/main.c ****   /* USER CODE BEGIN MX_GPIO_Init_2 */
 449:Core/Src/main.c **** 
 450:Core/Src/main.c ****   /* USER CODE END MX_GPIO_Init_2 */
ARM GAS  C:\Users\Miruna\AppData\Local\Temp\ccbGg7G6.s 			page 10


 451:Core/Src/main.c **** }
  65              		.loc 1 451 1 is_stmt 0 view .LVU13
  66 0028 02B0     		add	sp, sp, #8
  67              	.LCFI1:
  68              		.cfi_def_cfa_offset 0
  69              		@ sp needed
  70 002a 7047     		bx	lr
  71              	.L4:
  72              		.align	2
  73              	.L3:
  74 002c 00100240 		.word	1073876992
  75              		.cfi_endproc
  76              	.LFE75:
  78              		.section	.text.__io_putchar,"ax",%progbits
  79              		.align	1
  80              		.global	__io_putchar
  81              		.syntax unified
  82              		.thumb
  83              		.thumb_func
  85              	__io_putchar:
  86              	.LVL0:
  87              	.LFB68:
 112:Core/Src/main.c ****   HAL_UART_Transmit(&huart1, (uint8_t *)&ch, 1, HAL_MAX_DELAY);
  88              		.loc 1 112 1 is_stmt 1 view -0
  89              		.cfi_startproc
  90              		@ args = 0, pretend = 0, frame = 8
  91              		@ frame_needed = 0, uses_anonymous_args = 0
 112:Core/Src/main.c ****   HAL_UART_Transmit(&huart1, (uint8_t *)&ch, 1, HAL_MAX_DELAY);
  92              		.loc 1 112 1 is_stmt 0 view .LVU15
  93 0000 00B5     		push	{lr}
  94              	.LCFI2:
  95              		.cfi_def_cfa_offset 4
  96              		.cfi_offset 14, -4
  97 0002 83B0     		sub	sp, sp, #12
  98              	.LCFI3:
  99              		.cfi_def_cfa_offset 16
 100 0004 0190     		str	r0, [sp, #4]
 113:Core/Src/main.c ****   return ch;
 101              		.loc 1 113 3 is_stmt 1 view .LVU16
 102 0006 4FF0FF33 		mov	r3, #-1
 103 000a 0122     		movs	r2, #1
 104 000c 01A9     		add	r1, sp, #4
 105 000e 0348     		ldr	r0, .L7
 106              	.LVL1:
 113:Core/Src/main.c ****   return ch;
 107              		.loc 1 113 3 is_stmt 0 view .LVU17
 108 0010 FFF7FEFF 		bl	HAL_UART_Transmit
 109              	.LVL2:
 114:Core/Src/main.c **** }
 110              		.loc 1 114 3 is_stmt 1 view .LVU18
 115:Core/Src/main.c **** 
 111              		.loc 1 115 1 is_stmt 0 view .LVU19
 112 0014 0198     		ldr	r0, [sp, #4]
 113 0016 03B0     		add	sp, sp, #12
 114              	.LCFI4:
 115              		.cfi_def_cfa_offset 4
 116              		@ sp needed
ARM GAS  C:\Users\Miruna\AppData\Local\Temp\ccbGg7G6.s 			page 11


 117 0018 5DF804FB 		ldr	pc, [sp], #4
 118              	.L8:
 119              		.align	2
 120              	.L7:
 121 001c 00000000 		.word	huart1
 122              		.cfi_endproc
 123              	.LFE68:
 125              		.section	.text._write,"ax",%progbits
 126              		.align	1
 127              		.global	_write
 128              		.syntax unified
 129              		.thumb
 130              		.thumb_func
 132              	_write:
 133              	.LVL3:
 134              	.LFB69:
 118:Core/Src/main.c ****   HAL_UART_Transmit(&huart1, (uint8_t *) ptr, len, HAL_MAX_DELAY);
 135              		.loc 1 118 1 is_stmt 1 view -0
 136              		.cfi_startproc
 137              		@ args = 0, pretend = 0, frame = 0
 138              		@ frame_needed = 0, uses_anonymous_args = 0
 118:Core/Src/main.c ****   HAL_UART_Transmit(&huart1, (uint8_t *) ptr, len, HAL_MAX_DELAY);
 139              		.loc 1 118 1 is_stmt 0 view .LVU21
 140 0000 10B5     		push	{r4, lr}
 141              	.LCFI5:
 142              		.cfi_def_cfa_offset 8
 143              		.cfi_offset 4, -8
 144              		.cfi_offset 14, -4
 145 0002 1446     		mov	r4, r2
 119:Core/Src/main.c ****   return len;
 146              		.loc 1 119 3 is_stmt 1 view .LVU22
 147 0004 4FF0FF33 		mov	r3, #-1
 148 0008 92B2     		uxth	r2, r2
 149              	.LVL4:
 119:Core/Src/main.c ****   return len;
 150              		.loc 1 119 3 is_stmt 0 view .LVU23
 151 000a 0248     		ldr	r0, .L11
 152              	.LVL5:
 119:Core/Src/main.c ****   return len;
 153              		.loc 1 119 3 view .LVU24
 154 000c FFF7FEFF 		bl	HAL_UART_Transmit
 155              	.LVL6:
 120:Core/Src/main.c **** }
 156              		.loc 1 120 3 is_stmt 1 view .LVU25
 121:Core/Src/main.c **** 
 157              		.loc 1 121 1 is_stmt 0 view .LVU26
 158 0010 2046     		mov	r0, r4
 159 0012 10BD     		pop	{r4, pc}
 160              	.LVL7:
 161              	.L12:
 121:Core/Src/main.c **** 
 162              		.loc 1 121 1 view .LVU27
 163              		.align	2
 164              	.L11:
 165 0014 00000000 		.word	huart1
 166              		.cfi_endproc
 167              	.LFE69:
ARM GAS  C:\Users\Miruna\AppData\Local\Temp\ccbGg7G6.s 			page 12


 169              		.section	.text.Error_Handler,"ax",%progbits
 170              		.align	1
 171              		.global	Error_Handler
 172              		.syntax unified
 173              		.thumb
 174              		.thumb_func
 176              	Error_Handler:
 177              	.LFB76:
 452:Core/Src/main.c **** 
 453:Core/Src/main.c **** /* USER CODE BEGIN 4 */
 454:Core/Src/main.c **** 
 455:Core/Src/main.c **** /* USER CODE END 4 */
 456:Core/Src/main.c **** 
 457:Core/Src/main.c **** /**
 458:Core/Src/main.c ****   * @brief  This function is executed in case of error occurrence.
 459:Core/Src/main.c ****   * @retval None
 460:Core/Src/main.c ****   */
 461:Core/Src/main.c **** void Error_Handler(void)
 462:Core/Src/main.c **** {
 178              		.loc 1 462 1 is_stmt 1 view -0
 179              		.cfi_startproc
 180              		@ Volatile: function does not return.
 181              		@ args = 0, pretend = 0, frame = 0
 182              		@ frame_needed = 0, uses_anonymous_args = 0
 183              		@ link register save eliminated.
 463:Core/Src/main.c ****   /* USER CODE BEGIN Error_Handler_Debug */
 464:Core/Src/main.c ****   /* User can add his own implementation to report the HAL error return state */
 465:Core/Src/main.c ****   __disable_irq();
 184              		.loc 1 465 3 view .LVU29
 185              	.LBB6:
 186              	.LBI6:
 187              		.file 2 "Drivers/CMSIS/Include/cmsis_gcc.h"
   1:Drivers/CMSIS/Include/cmsis_gcc.h **** /**************************************************************************//**
   2:Drivers/CMSIS/Include/cmsis_gcc.h ****  * @file     cmsis_gcc.h
   3:Drivers/CMSIS/Include/cmsis_gcc.h ****  * @brief    CMSIS compiler GCC header file
   4:Drivers/CMSIS/Include/cmsis_gcc.h ****  * @version  V5.0.4
   5:Drivers/CMSIS/Include/cmsis_gcc.h ****  * @date     09. April 2018
   6:Drivers/CMSIS/Include/cmsis_gcc.h ****  ******************************************************************************/
   7:Drivers/CMSIS/Include/cmsis_gcc.h **** /*
   8:Drivers/CMSIS/Include/cmsis_gcc.h ****  * Copyright (c) 2009-2018 Arm Limited. All rights reserved.
   9:Drivers/CMSIS/Include/cmsis_gcc.h ****  *
  10:Drivers/CMSIS/Include/cmsis_gcc.h ****  * SPDX-License-Identifier: Apache-2.0
  11:Drivers/CMSIS/Include/cmsis_gcc.h ****  *
  12:Drivers/CMSIS/Include/cmsis_gcc.h ****  * Licensed under the Apache License, Version 2.0 (the License); you may
  13:Drivers/CMSIS/Include/cmsis_gcc.h ****  * not use this file except in compliance with the License.
  14:Drivers/CMSIS/Include/cmsis_gcc.h ****  * You may obtain a copy of the License at
  15:Drivers/CMSIS/Include/cmsis_gcc.h ****  *
  16:Drivers/CMSIS/Include/cmsis_gcc.h ****  * www.apache.org/licenses/LICENSE-2.0
  17:Drivers/CMSIS/Include/cmsis_gcc.h ****  *
  18:Drivers/CMSIS/Include/cmsis_gcc.h ****  * Unless required by applicable law or agreed to in writing, software
  19:Drivers/CMSIS/Include/cmsis_gcc.h ****  * distributed under the License is distributed on an AS IS BASIS, WITHOUT
  20:Drivers/CMSIS/Include/cmsis_gcc.h ****  * WARRANTIES OR CONDITIONS OF ANY KIND, either express or implied.
  21:Drivers/CMSIS/Include/cmsis_gcc.h ****  * See the License for the specific language governing permissions and
  22:Drivers/CMSIS/Include/cmsis_gcc.h ****  * limitations under the License.
  23:Drivers/CMSIS/Include/cmsis_gcc.h ****  */
  24:Drivers/CMSIS/Include/cmsis_gcc.h **** 
  25:Drivers/CMSIS/Include/cmsis_gcc.h **** #ifndef __CMSIS_GCC_H
ARM GAS  C:\Users\Miruna\AppData\Local\Temp\ccbGg7G6.s 			page 13


  26:Drivers/CMSIS/Include/cmsis_gcc.h **** #define __CMSIS_GCC_H
  27:Drivers/CMSIS/Include/cmsis_gcc.h **** 
  28:Drivers/CMSIS/Include/cmsis_gcc.h **** /* ignore some GCC warnings */
  29:Drivers/CMSIS/Include/cmsis_gcc.h **** #pragma GCC diagnostic push
  30:Drivers/CMSIS/Include/cmsis_gcc.h **** #pragma GCC diagnostic ignored "-Wsign-conversion"
  31:Drivers/CMSIS/Include/cmsis_gcc.h **** #pragma GCC diagnostic ignored "-Wconversion"
  32:Drivers/CMSIS/Include/cmsis_gcc.h **** #pragma GCC diagnostic ignored "-Wunused-parameter"
  33:Drivers/CMSIS/Include/cmsis_gcc.h **** 
  34:Drivers/CMSIS/Include/cmsis_gcc.h **** /* Fallback for __has_builtin */
  35:Drivers/CMSIS/Include/cmsis_gcc.h **** #ifndef __has_builtin
  36:Drivers/CMSIS/Include/cmsis_gcc.h ****   #define __has_builtin(x) (0)
  37:Drivers/CMSIS/Include/cmsis_gcc.h **** #endif
  38:Drivers/CMSIS/Include/cmsis_gcc.h **** 
  39:Drivers/CMSIS/Include/cmsis_gcc.h **** /* CMSIS compiler specific defines */
  40:Drivers/CMSIS/Include/cmsis_gcc.h **** #ifndef   __ASM
  41:Drivers/CMSIS/Include/cmsis_gcc.h ****   #define __ASM                                  __asm
  42:Drivers/CMSIS/Include/cmsis_gcc.h **** #endif
  43:Drivers/CMSIS/Include/cmsis_gcc.h **** #ifndef   __INLINE
  44:Drivers/CMSIS/Include/cmsis_gcc.h ****   #define __INLINE                               inline
  45:Drivers/CMSIS/Include/cmsis_gcc.h **** #endif
  46:Drivers/CMSIS/Include/cmsis_gcc.h **** #ifndef   __STATIC_INLINE
  47:Drivers/CMSIS/Include/cmsis_gcc.h ****   #define __STATIC_INLINE                        static inline
  48:Drivers/CMSIS/Include/cmsis_gcc.h **** #endif
  49:Drivers/CMSIS/Include/cmsis_gcc.h **** #ifndef   __STATIC_FORCEINLINE                 
  50:Drivers/CMSIS/Include/cmsis_gcc.h ****   #define __STATIC_FORCEINLINE                   __attribute__((always_inline)) static inline
  51:Drivers/CMSIS/Include/cmsis_gcc.h **** #endif                                           
  52:Drivers/CMSIS/Include/cmsis_gcc.h **** #ifndef   __NO_RETURN
  53:Drivers/CMSIS/Include/cmsis_gcc.h ****   #define __NO_RETURN                            __attribute__((__noreturn__))
  54:Drivers/CMSIS/Include/cmsis_gcc.h **** #endif
  55:Drivers/CMSIS/Include/cmsis_gcc.h **** #ifndef   __USED
  56:Drivers/CMSIS/Include/cmsis_gcc.h ****   #define __USED                                 __attribute__((used))
  57:Drivers/CMSIS/Include/cmsis_gcc.h **** #endif
  58:Drivers/CMSIS/Include/cmsis_gcc.h **** #ifndef   __WEAK
  59:Drivers/CMSIS/Include/cmsis_gcc.h ****   #define __WEAK                                 __attribute__((weak))
  60:Drivers/CMSIS/Include/cmsis_gcc.h **** #endif
  61:Drivers/CMSIS/Include/cmsis_gcc.h **** #ifndef   __PACKED
  62:Drivers/CMSIS/Include/cmsis_gcc.h ****   #define __PACKED                               __attribute__((packed, aligned(1)))
  63:Drivers/CMSIS/Include/cmsis_gcc.h **** #endif
  64:Drivers/CMSIS/Include/cmsis_gcc.h **** #ifndef   __PACKED_STRUCT
  65:Drivers/CMSIS/Include/cmsis_gcc.h ****   #define __PACKED_STRUCT                        struct __attribute__((packed, aligned(1)))
  66:Drivers/CMSIS/Include/cmsis_gcc.h **** #endif
  67:Drivers/CMSIS/Include/cmsis_gcc.h **** #ifndef   __PACKED_UNION
  68:Drivers/CMSIS/Include/cmsis_gcc.h ****   #define __PACKED_UNION                         union __attribute__((packed, aligned(1)))
  69:Drivers/CMSIS/Include/cmsis_gcc.h **** #endif
  70:Drivers/CMSIS/Include/cmsis_gcc.h **** #ifndef   __UNALIGNED_UINT32        /* deprecated */
  71:Drivers/CMSIS/Include/cmsis_gcc.h ****   #pragma GCC diagnostic push
  72:Drivers/CMSIS/Include/cmsis_gcc.h ****   #pragma GCC diagnostic ignored "-Wpacked"
  73:Drivers/CMSIS/Include/cmsis_gcc.h ****   #pragma GCC diagnostic ignored "-Wattributes"
  74:Drivers/CMSIS/Include/cmsis_gcc.h ****   struct __attribute__((packed)) T_UINT32 { uint32_t v; };
  75:Drivers/CMSIS/Include/cmsis_gcc.h ****   #pragma GCC diagnostic pop
  76:Drivers/CMSIS/Include/cmsis_gcc.h ****   #define __UNALIGNED_UINT32(x)                  (((struct T_UINT32 *)(x))->v)
  77:Drivers/CMSIS/Include/cmsis_gcc.h **** #endif
  78:Drivers/CMSIS/Include/cmsis_gcc.h **** #ifndef   __UNALIGNED_UINT16_WRITE
  79:Drivers/CMSIS/Include/cmsis_gcc.h ****   #pragma GCC diagnostic push
  80:Drivers/CMSIS/Include/cmsis_gcc.h ****   #pragma GCC diagnostic ignored "-Wpacked"
  81:Drivers/CMSIS/Include/cmsis_gcc.h ****   #pragma GCC diagnostic ignored "-Wattributes"
  82:Drivers/CMSIS/Include/cmsis_gcc.h ****   __PACKED_STRUCT T_UINT16_WRITE { uint16_t v; };
ARM GAS  C:\Users\Miruna\AppData\Local\Temp\ccbGg7G6.s 			page 14


  83:Drivers/CMSIS/Include/cmsis_gcc.h ****   #pragma GCC diagnostic pop
  84:Drivers/CMSIS/Include/cmsis_gcc.h ****   #define __UNALIGNED_UINT16_WRITE(addr, val)    (void)((((struct T_UINT16_WRITE *)(void *)(addr))-
  85:Drivers/CMSIS/Include/cmsis_gcc.h **** #endif
  86:Drivers/CMSIS/Include/cmsis_gcc.h **** #ifndef   __UNALIGNED_UINT16_READ
  87:Drivers/CMSIS/Include/cmsis_gcc.h ****   #pragma GCC diagnostic push
  88:Drivers/CMSIS/Include/cmsis_gcc.h ****   #pragma GCC diagnostic ignored "-Wpacked"
  89:Drivers/CMSIS/Include/cmsis_gcc.h ****   #pragma GCC diagnostic ignored "-Wattributes"
  90:Drivers/CMSIS/Include/cmsis_gcc.h ****   __PACKED_STRUCT T_UINT16_READ { uint16_t v; };
  91:Drivers/CMSIS/Include/cmsis_gcc.h ****   #pragma GCC diagnostic pop
  92:Drivers/CMSIS/Include/cmsis_gcc.h ****   #define __UNALIGNED_UINT16_READ(addr)          (((const struct T_UINT16_READ *)(const void *)(add
  93:Drivers/CMSIS/Include/cmsis_gcc.h **** #endif
  94:Drivers/CMSIS/Include/cmsis_gcc.h **** #ifndef   __UNALIGNED_UINT32_WRITE
  95:Drivers/CMSIS/Include/cmsis_gcc.h ****   #pragma GCC diagnostic push
  96:Drivers/CMSIS/Include/cmsis_gcc.h ****   #pragma GCC diagnostic ignored "-Wpacked"
  97:Drivers/CMSIS/Include/cmsis_gcc.h ****   #pragma GCC diagnostic ignored "-Wattributes"
  98:Drivers/CMSIS/Include/cmsis_gcc.h ****   __PACKED_STRUCT T_UINT32_WRITE { uint32_t v; };
  99:Drivers/CMSIS/Include/cmsis_gcc.h ****   #pragma GCC diagnostic pop
 100:Drivers/CMSIS/Include/cmsis_gcc.h ****   #define __UNALIGNED_UINT32_WRITE(addr, val)    (void)((((struct T_UINT32_WRITE *)(void *)(addr))-
 101:Drivers/CMSIS/Include/cmsis_gcc.h **** #endif
 102:Drivers/CMSIS/Include/cmsis_gcc.h **** #ifndef   __UNALIGNED_UINT32_READ
 103:Drivers/CMSIS/Include/cmsis_gcc.h ****   #pragma GCC diagnostic push
 104:Drivers/CMSIS/Include/cmsis_gcc.h ****   #pragma GCC diagnostic ignored "-Wpacked"
 105:Drivers/CMSIS/Include/cmsis_gcc.h ****   #pragma GCC diagnostic ignored "-Wattributes"
 106:Drivers/CMSIS/Include/cmsis_gcc.h ****   __PACKED_STRUCT T_UINT32_READ { uint32_t v; };
 107:Drivers/CMSIS/Include/cmsis_gcc.h ****   #pragma GCC diagnostic pop
 108:Drivers/CMSIS/Include/cmsis_gcc.h ****   #define __UNALIGNED_UINT32_READ(addr)          (((const struct T_UINT32_READ *)(const void *)(add
 109:Drivers/CMSIS/Include/cmsis_gcc.h **** #endif
 110:Drivers/CMSIS/Include/cmsis_gcc.h **** #ifndef   __ALIGNED
 111:Drivers/CMSIS/Include/cmsis_gcc.h ****   #define __ALIGNED(x)                           __attribute__((aligned(x)))
 112:Drivers/CMSIS/Include/cmsis_gcc.h **** #endif
 113:Drivers/CMSIS/Include/cmsis_gcc.h **** #ifndef   __RESTRICT
 114:Drivers/CMSIS/Include/cmsis_gcc.h ****   #define __RESTRICT                             __restrict
 115:Drivers/CMSIS/Include/cmsis_gcc.h **** #endif
 116:Drivers/CMSIS/Include/cmsis_gcc.h **** 
 117:Drivers/CMSIS/Include/cmsis_gcc.h **** 
 118:Drivers/CMSIS/Include/cmsis_gcc.h **** /* ###########################  Core Function Access  ########################### */
 119:Drivers/CMSIS/Include/cmsis_gcc.h **** /** \ingroup  CMSIS_Core_FunctionInterface
 120:Drivers/CMSIS/Include/cmsis_gcc.h ****     \defgroup CMSIS_Core_RegAccFunctions CMSIS Core Register Access Functions
 121:Drivers/CMSIS/Include/cmsis_gcc.h ****   @{
 122:Drivers/CMSIS/Include/cmsis_gcc.h ****  */
 123:Drivers/CMSIS/Include/cmsis_gcc.h **** 
 124:Drivers/CMSIS/Include/cmsis_gcc.h **** /**
 125:Drivers/CMSIS/Include/cmsis_gcc.h ****   \brief   Enable IRQ Interrupts
 126:Drivers/CMSIS/Include/cmsis_gcc.h ****   \details Enables IRQ interrupts by clearing the I-bit in the CPSR.
 127:Drivers/CMSIS/Include/cmsis_gcc.h ****            Can only be executed in Privileged modes.
 128:Drivers/CMSIS/Include/cmsis_gcc.h ****  */
 129:Drivers/CMSIS/Include/cmsis_gcc.h **** __STATIC_FORCEINLINE void __enable_irq(void)
 130:Drivers/CMSIS/Include/cmsis_gcc.h **** {
 131:Drivers/CMSIS/Include/cmsis_gcc.h ****   __ASM volatile ("cpsie i" : : : "memory");
 132:Drivers/CMSIS/Include/cmsis_gcc.h **** }
 133:Drivers/CMSIS/Include/cmsis_gcc.h **** 
 134:Drivers/CMSIS/Include/cmsis_gcc.h **** 
 135:Drivers/CMSIS/Include/cmsis_gcc.h **** /**
 136:Drivers/CMSIS/Include/cmsis_gcc.h ****   \brief   Disable IRQ Interrupts
 137:Drivers/CMSIS/Include/cmsis_gcc.h ****   \details Disables IRQ interrupts by setting the I-bit in the CPSR.
 138:Drivers/CMSIS/Include/cmsis_gcc.h ****            Can only be executed in Privileged modes.
 139:Drivers/CMSIS/Include/cmsis_gcc.h ****  */
ARM GAS  C:\Users\Miruna\AppData\Local\Temp\ccbGg7G6.s 			page 15


 140:Drivers/CMSIS/Include/cmsis_gcc.h **** __STATIC_FORCEINLINE void __disable_irq(void)
 188              		.loc 2 140 27 view .LVU30
 189              	.LBB7:
 141:Drivers/CMSIS/Include/cmsis_gcc.h **** {
 142:Drivers/CMSIS/Include/cmsis_gcc.h ****   __ASM volatile ("cpsid i" : : : "memory");
 190              		.loc 2 142 3 view .LVU31
 191              		.syntax unified
 192              	@ 142 "Drivers/CMSIS/Include/cmsis_gcc.h" 1
 193 0000 72B6     		cpsid i
 194              	@ 0 "" 2
 195              		.thumb
 196              		.syntax unified
 197              	.L14:
 198              	.LBE7:
 199              	.LBE6:
 466:Core/Src/main.c ****   while (1)
 200              		.loc 1 466 3 view .LVU32
 467:Core/Src/main.c ****   {
 468:Core/Src/main.c ****   }
 201              		.loc 1 468 3 view .LVU33
 466:Core/Src/main.c ****   while (1)
 202              		.loc 1 466 9 view .LVU34
 203 0002 FEE7     		b	.L14
 204              		.cfi_endproc
 205              	.LFE76:
 207              		.section	.text.MX_ADC1_Init,"ax",%progbits
 208              		.align	1
 209              		.syntax unified
 210              		.thumb
 211              		.thumb_func
 213              	MX_ADC1_Init:
 214              	.LFB72:
 309:Core/Src/main.c **** 
 215              		.loc 1 309 1 view -0
 216              		.cfi_startproc
 217              		@ args = 0, pretend = 0, frame = 16
 218              		@ frame_needed = 0, uses_anonymous_args = 0
 219 0000 00B5     		push	{lr}
 220              	.LCFI6:
 221              		.cfi_def_cfa_offset 4
 222              		.cfi_offset 14, -4
 223 0002 85B0     		sub	sp, sp, #20
 224              	.LCFI7:
 225              		.cfi_def_cfa_offset 24
 315:Core/Src/main.c **** 
 226              		.loc 1 315 3 view .LVU36
 315:Core/Src/main.c **** 
 227              		.loc 1 315 26 is_stmt 0 view .LVU37
 228 0004 0023     		movs	r3, #0
 229 0006 0193     		str	r3, [sp, #4]
 230 0008 0293     		str	r3, [sp, #8]
 231 000a 0393     		str	r3, [sp, #12]
 323:Core/Src/main.c ****   hadc1.Init.ScanConvMode = ADC_SCAN_ENABLE;
 232              		.loc 1 323 3 is_stmt 1 view .LVU38
 323:Core/Src/main.c ****   hadc1.Init.ScanConvMode = ADC_SCAN_ENABLE;
 233              		.loc 1 323 18 is_stmt 0 view .LVU39
 234 000c 1C48     		ldr	r0, .L25
ARM GAS  C:\Users\Miruna\AppData\Local\Temp\ccbGg7G6.s 			page 16


 235 000e 1D4A     		ldr	r2, .L25+4
 236 0010 0260     		str	r2, [r0]
 324:Core/Src/main.c ****   hadc1.Init.ContinuousConvMode = DISABLE;
 237              		.loc 1 324 3 is_stmt 1 view .LVU40
 324:Core/Src/main.c ****   hadc1.Init.ContinuousConvMode = DISABLE;
 238              		.loc 1 324 27 is_stmt 0 view .LVU41
 239 0012 4FF48072 		mov	r2, #256
 240 0016 8260     		str	r2, [r0, #8]
 325:Core/Src/main.c ****   hadc1.Init.DiscontinuousConvMode = ENABLE;
 241              		.loc 1 325 3 is_stmt 1 view .LVU42
 325:Core/Src/main.c ****   hadc1.Init.DiscontinuousConvMode = ENABLE;
 242              		.loc 1 325 33 is_stmt 0 view .LVU43
 243 0018 0373     		strb	r3, [r0, #12]
 326:Core/Src/main.c ****   hadc1.Init.NbrOfDiscConversion = 1;
 244              		.loc 1 326 3 is_stmt 1 view .LVU44
 326:Core/Src/main.c ****   hadc1.Init.NbrOfDiscConversion = 1;
 245              		.loc 1 326 36 is_stmt 0 view .LVU45
 246 001a 0122     		movs	r2, #1
 247 001c 0275     		strb	r2, [r0, #20]
 327:Core/Src/main.c ****   hadc1.Init.ExternalTrigConv = ADC_SOFTWARE_START;
 248              		.loc 1 327 3 is_stmt 1 view .LVU46
 327:Core/Src/main.c ****   hadc1.Init.ExternalTrigConv = ADC_SOFTWARE_START;
 249              		.loc 1 327 34 is_stmt 0 view .LVU47
 250 001e 8261     		str	r2, [r0, #24]
 328:Core/Src/main.c ****   hadc1.Init.DataAlign = ADC_DATAALIGN_RIGHT;
 251              		.loc 1 328 3 is_stmt 1 view .LVU48
 328:Core/Src/main.c ****   hadc1.Init.DataAlign = ADC_DATAALIGN_RIGHT;
 252              		.loc 1 328 31 is_stmt 0 view .LVU49
 253 0020 4FF46022 		mov	r2, #917504
 254 0024 C261     		str	r2, [r0, #28]
 329:Core/Src/main.c ****   hadc1.Init.NbrOfConversion = 3;
 255              		.loc 1 329 3 is_stmt 1 view .LVU50
 329:Core/Src/main.c ****   hadc1.Init.NbrOfConversion = 3;
 256              		.loc 1 329 24 is_stmt 0 view .LVU51
 257 0026 4360     		str	r3, [r0, #4]
 330:Core/Src/main.c ****   if (HAL_ADC_Init(&hadc1) != HAL_OK)
 258              		.loc 1 330 3 is_stmt 1 view .LVU52
 330:Core/Src/main.c ****   if (HAL_ADC_Init(&hadc1) != HAL_OK)
 259              		.loc 1 330 30 is_stmt 0 view .LVU53
 260 0028 0323     		movs	r3, #3
 261 002a 0361     		str	r3, [r0, #16]
 331:Core/Src/main.c ****   {
 262              		.loc 1 331 3 is_stmt 1 view .LVU54
 331:Core/Src/main.c ****   {
 263              		.loc 1 331 7 is_stmt 0 view .LVU55
 264 002c FFF7FEFF 		bl	HAL_ADC_Init
 265              	.LVL8:
 331:Core/Src/main.c ****   {
 266              		.loc 1 331 6 discriminator 1 view .LVU56
 267 0030 F0B9     		cbnz	r0, .L21
 338:Core/Src/main.c ****   sConfig.Rank = ADC_REGULAR_RANK_1;
 268              		.loc 1 338 3 is_stmt 1 view .LVU57
 338:Core/Src/main.c ****   sConfig.Rank = ADC_REGULAR_RANK_1;
 269              		.loc 1 338 19 is_stmt 0 view .LVU58
 270 0032 0123     		movs	r3, #1
 271 0034 0193     		str	r3, [sp, #4]
 339:Core/Src/main.c ****   sConfig.SamplingTime = ADC_SAMPLETIME_1CYCLE_5;
ARM GAS  C:\Users\Miruna\AppData\Local\Temp\ccbGg7G6.s 			page 17


 272              		.loc 1 339 3 is_stmt 1 view .LVU59
 339:Core/Src/main.c ****   sConfig.SamplingTime = ADC_SAMPLETIME_1CYCLE_5;
 273              		.loc 1 339 16 is_stmt 0 view .LVU60
 274 0036 0293     		str	r3, [sp, #8]
 340:Core/Src/main.c ****   if (HAL_ADC_ConfigChannel(&hadc1, &sConfig) != HAL_OK)
 275              		.loc 1 340 3 is_stmt 1 view .LVU61
 340:Core/Src/main.c ****   if (HAL_ADC_ConfigChannel(&hadc1, &sConfig) != HAL_OK)
 276              		.loc 1 340 24 is_stmt 0 view .LVU62
 277 0038 0023     		movs	r3, #0
 278 003a 0393     		str	r3, [sp, #12]
 341:Core/Src/main.c ****   {
 279              		.loc 1 341 3 is_stmt 1 view .LVU63
 341:Core/Src/main.c ****   {
 280              		.loc 1 341 7 is_stmt 0 view .LVU64
 281 003c 01A9     		add	r1, sp, #4
 282 003e 1048     		ldr	r0, .L25
 283 0040 FFF7FEFF 		bl	HAL_ADC_ConfigChannel
 284              	.LVL9:
 341:Core/Src/main.c ****   {
 285              		.loc 1 341 6 discriminator 1 view .LVU65
 286 0044 B0B9     		cbnz	r0, .L22
 348:Core/Src/main.c ****   sConfig.Rank = ADC_REGULAR_RANK_2;
 287              		.loc 1 348 3 is_stmt 1 view .LVU66
 348:Core/Src/main.c ****   sConfig.Rank = ADC_REGULAR_RANK_2;
 288              		.loc 1 348 19 is_stmt 0 view .LVU67
 289 0046 0423     		movs	r3, #4
 290 0048 0193     		str	r3, [sp, #4]
 349:Core/Src/main.c ****   if (HAL_ADC_ConfigChannel(&hadc1, &sConfig) != HAL_OK)
 291              		.loc 1 349 3 is_stmt 1 view .LVU68
 349:Core/Src/main.c ****   if (HAL_ADC_ConfigChannel(&hadc1, &sConfig) != HAL_OK)
 292              		.loc 1 349 16 is_stmt 0 view .LVU69
 293 004a 0223     		movs	r3, #2
 294 004c 0293     		str	r3, [sp, #8]
 350:Core/Src/main.c ****   {
 295              		.loc 1 350 3 is_stmt 1 view .LVU70
 350:Core/Src/main.c ****   {
 296              		.loc 1 350 7 is_stmt 0 view .LVU71
 297 004e 01A9     		add	r1, sp, #4
 298 0050 0B48     		ldr	r0, .L25
 299 0052 FFF7FEFF 		bl	HAL_ADC_ConfigChannel
 300              	.LVL10:
 350:Core/Src/main.c ****   {
 301              		.loc 1 350 6 discriminator 1 view .LVU72
 302 0056 78B9     		cbnz	r0, .L23
 357:Core/Src/main.c ****   sConfig.Rank = ADC_REGULAR_RANK_3;
 303              		.loc 1 357 3 is_stmt 1 view .LVU73
 357:Core/Src/main.c ****   sConfig.Rank = ADC_REGULAR_RANK_3;
 304              		.loc 1 357 19 is_stmt 0 view .LVU74
 305 0058 0723     		movs	r3, #7
 306 005a 0193     		str	r3, [sp, #4]
 358:Core/Src/main.c ****   if (HAL_ADC_ConfigChannel(&hadc1, &sConfig) != HAL_OK)
 307              		.loc 1 358 3 is_stmt 1 view .LVU75
 358:Core/Src/main.c ****   if (HAL_ADC_ConfigChannel(&hadc1, &sConfig) != HAL_OK)
 308              		.loc 1 358 16 is_stmt 0 view .LVU76
 309 005c 0323     		movs	r3, #3
 310 005e 0293     		str	r3, [sp, #8]
 359:Core/Src/main.c ****   {
ARM GAS  C:\Users\Miruna\AppData\Local\Temp\ccbGg7G6.s 			page 18


 311              		.loc 1 359 3 is_stmt 1 view .LVU77
 359:Core/Src/main.c ****   {
 312              		.loc 1 359 7 is_stmt 0 view .LVU78
 313 0060 01A9     		add	r1, sp, #4
 314 0062 0748     		ldr	r0, .L25
 315 0064 FFF7FEFF 		bl	HAL_ADC_ConfigChannel
 316              	.LVL11:
 359:Core/Src/main.c ****   {
 317              		.loc 1 359 6 discriminator 1 view .LVU79
 318 0068 40B9     		cbnz	r0, .L24
 367:Core/Src/main.c **** 
 319              		.loc 1 367 1 view .LVU80
 320 006a 05B0     		add	sp, sp, #20
 321              	.LCFI8:
 322              		.cfi_remember_state
 323              		.cfi_def_cfa_offset 4
 324              		@ sp needed
 325 006c 5DF804FB 		ldr	pc, [sp], #4
 326              	.L21:
 327              	.LCFI9:
 328              		.cfi_restore_state
 333:Core/Src/main.c ****   }
 329              		.loc 1 333 5 is_stmt 1 view .LVU81
 330 0070 FFF7FEFF 		bl	Error_Handler
 331              	.LVL12:
 332              	.L22:
 343:Core/Src/main.c ****   }
 333              		.loc 1 343 5 view .LVU82
 334 0074 FFF7FEFF 		bl	Error_Handler
 335              	.LVL13:
 336              	.L23:
 352:Core/Src/main.c ****   }
 337              		.loc 1 352 5 view .LVU83
 338 0078 FFF7FEFF 		bl	Error_Handler
 339              	.LVL14:
 340              	.L24:
 361:Core/Src/main.c ****   }
 341              		.loc 1 361 5 view .LVU84
 342 007c FFF7FEFF 		bl	Error_Handler
 343              	.LVL15:
 344              	.L26:
 345              		.align	2
 346              	.L25:
 347 0080 00000000 		.word	hadc1
 348 0084 00240140 		.word	1073816576
 349              		.cfi_endproc
 350              	.LFE72:
 352              		.section	.text.MX_USART1_UART_Init,"ax",%progbits
 353              		.align	1
 354              		.syntax unified
 355              		.thumb
 356              		.thumb_func
 358              	MX_USART1_UART_Init:
 359              	.LFB73:
 375:Core/Src/main.c **** 
 360              		.loc 1 375 1 view -0
 361              		.cfi_startproc
ARM GAS  C:\Users\Miruna\AppData\Local\Temp\ccbGg7G6.s 			page 19


 362              		@ args = 0, pretend = 0, frame = 0
 363              		@ frame_needed = 0, uses_anonymous_args = 0
 364 0000 08B5     		push	{r3, lr}
 365              	.LCFI10:
 366              		.cfi_def_cfa_offset 8
 367              		.cfi_offset 3, -8
 368              		.cfi_offset 14, -4
 384:Core/Src/main.c ****   huart1.Init.BaudRate = 9600;
 369              		.loc 1 384 3 view .LVU86
 384:Core/Src/main.c ****   huart1.Init.BaudRate = 9600;
 370              		.loc 1 384 19 is_stmt 0 view .LVU87
 371 0002 0A48     		ldr	r0, .L31
 372 0004 0A4B     		ldr	r3, .L31+4
 373 0006 0360     		str	r3, [r0]
 385:Core/Src/main.c ****   huart1.Init.WordLength = UART_WORDLENGTH_8B;
 374              		.loc 1 385 3 is_stmt 1 view .LVU88
 385:Core/Src/main.c ****   huart1.Init.WordLength = UART_WORDLENGTH_8B;
 375              		.loc 1 385 24 is_stmt 0 view .LVU89
 376 0008 4FF41653 		mov	r3, #9600
 377 000c 4360     		str	r3, [r0, #4]
 386:Core/Src/main.c ****   huart1.Init.StopBits = UART_STOPBITS_1;
 378              		.loc 1 386 3 is_stmt 1 view .LVU90
 386:Core/Src/main.c ****   huart1.Init.StopBits = UART_STOPBITS_1;
 379              		.loc 1 386 26 is_stmt 0 view .LVU91
 380 000e 0023     		movs	r3, #0
 381 0010 8360     		str	r3, [r0, #8]
 387:Core/Src/main.c ****   huart1.Init.Parity = UART_PARITY_NONE;
 382              		.loc 1 387 3 is_stmt 1 view .LVU92
 387:Core/Src/main.c ****   huart1.Init.Parity = UART_PARITY_NONE;
 383              		.loc 1 387 24 is_stmt 0 view .LVU93
 384 0012 C360     		str	r3, [r0, #12]
 388:Core/Src/main.c ****   huart1.Init.Mode = UART_MODE_TX_RX;
 385              		.loc 1 388 3 is_stmt 1 view .LVU94
 388:Core/Src/main.c ****   huart1.Init.Mode = UART_MODE_TX_RX;
 386              		.loc 1 388 22 is_stmt 0 view .LVU95
 387 0014 0361     		str	r3, [r0, #16]
 389:Core/Src/main.c ****   huart1.Init.HwFlowCtl = UART_HWCONTROL_NONE;
 388              		.loc 1 389 3 is_stmt 1 view .LVU96
 389:Core/Src/main.c ****   huart1.Init.HwFlowCtl = UART_HWCONTROL_NONE;
 389              		.loc 1 389 20 is_stmt 0 view .LVU97
 390 0016 0C22     		movs	r2, #12
 391 0018 4261     		str	r2, [r0, #20]
 390:Core/Src/main.c ****   huart1.Init.OverSampling = UART_OVERSAMPLING_16;
 392              		.loc 1 390 3 is_stmt 1 view .LVU98
 390:Core/Src/main.c ****   huart1.Init.OverSampling = UART_OVERSAMPLING_16;
 393              		.loc 1 390 25 is_stmt 0 view .LVU99
 394 001a 8361     		str	r3, [r0, #24]
 391:Core/Src/main.c ****   if (HAL_UART_Init(&huart1) != HAL_OK)
 395              		.loc 1 391 3 is_stmt 1 view .LVU100
 391:Core/Src/main.c ****   if (HAL_UART_Init(&huart1) != HAL_OK)
 396              		.loc 1 391 28 is_stmt 0 view .LVU101
 397 001c C361     		str	r3, [r0, #28]
 392:Core/Src/main.c ****   {
 398              		.loc 1 392 3 is_stmt 1 view .LVU102
 392:Core/Src/main.c ****   {
 399              		.loc 1 392 7 is_stmt 0 view .LVU103
 400 001e FFF7FEFF 		bl	HAL_UART_Init
ARM GAS  C:\Users\Miruna\AppData\Local\Temp\ccbGg7G6.s 			page 20


 401              	.LVL16:
 392:Core/Src/main.c ****   {
 402              		.loc 1 392 6 discriminator 1 view .LVU104
 403 0022 00B9     		cbnz	r0, .L30
 400:Core/Src/main.c **** 
 404              		.loc 1 400 1 view .LVU105
 405 0024 08BD     		pop	{r3, pc}
 406              	.L30:
 394:Core/Src/main.c ****   }
 407              		.loc 1 394 5 is_stmt 1 view .LVU106
 408 0026 FFF7FEFF 		bl	Error_Handler
 409              	.LVL17:
 410              	.L32:
 411 002a 00BF     		.align	2
 412              	.L31:
 413 002c 00000000 		.word	huart1
 414 0030 00380140 		.word	1073821696
 415              		.cfi_endproc
 416              	.LFE73:
 418              		.section	.text.MX_USB_PCD_Init,"ax",%progbits
 419              		.align	1
 420              		.syntax unified
 421              		.thumb
 422              		.thumb_func
 424              	MX_USB_PCD_Init:
 425              	.LFB74:
 408:Core/Src/main.c **** 
 426              		.loc 1 408 1 view -0
 427              		.cfi_startproc
 428              		@ args = 0, pretend = 0, frame = 0
 429              		@ frame_needed = 0, uses_anonymous_args = 0
 430 0000 08B5     		push	{r3, lr}
 431              	.LCFI11:
 432              		.cfi_def_cfa_offset 8
 433              		.cfi_offset 3, -8
 434              		.cfi_offset 14, -4
 417:Core/Src/main.c ****   hpcd_USB_FS.Init.dev_endpoints = 8;
 435              		.loc 1 417 3 view .LVU108
 417:Core/Src/main.c ****   hpcd_USB_FS.Init.dev_endpoints = 8;
 436              		.loc 1 417 24 is_stmt 0 view .LVU109
 437 0002 0848     		ldr	r0, .L37
 438 0004 084B     		ldr	r3, .L37+4
 439 0006 0360     		str	r3, [r0]
 418:Core/Src/main.c ****   hpcd_USB_FS.Init.speed = PCD_SPEED_FULL;
 440              		.loc 1 418 3 is_stmt 1 view .LVU110
 418:Core/Src/main.c ****   hpcd_USB_FS.Init.speed = PCD_SPEED_FULL;
 441              		.loc 1 418 34 is_stmt 0 view .LVU111
 442 0008 0823     		movs	r3, #8
 443 000a 0371     		strb	r3, [r0, #4]
 419:Core/Src/main.c ****   hpcd_USB_FS.Init.low_power_enable = DISABLE;
 444              		.loc 1 419 3 is_stmt 1 view .LVU112
 419:Core/Src/main.c ****   hpcd_USB_FS.Init.low_power_enable = DISABLE;
 445              		.loc 1 419 26 is_stmt 0 view .LVU113
 446 000c 0223     		movs	r3, #2
 447 000e 8371     		strb	r3, [r0, #6]
 420:Core/Src/main.c ****   hpcd_USB_FS.Init.lpm_enable = DISABLE;
 448              		.loc 1 420 3 is_stmt 1 view .LVU114
ARM GAS  C:\Users\Miruna\AppData\Local\Temp\ccbGg7G6.s 			page 21


 420:Core/Src/main.c ****   hpcd_USB_FS.Init.lpm_enable = DISABLE;
 449              		.loc 1 420 37 is_stmt 0 view .LVU115
 450 0010 0023     		movs	r3, #0
 451 0012 8372     		strb	r3, [r0, #10]
 421:Core/Src/main.c ****   hpcd_USB_FS.Init.battery_charging_enable = DISABLE;
 452              		.loc 1 421 3 is_stmt 1 view .LVU116
 421:Core/Src/main.c ****   hpcd_USB_FS.Init.battery_charging_enable = DISABLE;
 453              		.loc 1 421 31 is_stmt 0 view .LVU117
 454 0014 C372     		strb	r3, [r0, #11]
 422:Core/Src/main.c ****   if (HAL_PCD_Init(&hpcd_USB_FS) != HAL_OK)
 455              		.loc 1 422 3 is_stmt 1 view .LVU118
 422:Core/Src/main.c ****   if (HAL_PCD_Init(&hpcd_USB_FS) != HAL_OK)
 456              		.loc 1 422 44 is_stmt 0 view .LVU119
 457 0016 0373     		strb	r3, [r0, #12]
 423:Core/Src/main.c ****   {
 458              		.loc 1 423 3 is_stmt 1 view .LVU120
 423:Core/Src/main.c ****   {
 459              		.loc 1 423 7 is_stmt 0 view .LVU121
 460 0018 FFF7FEFF 		bl	HAL_PCD_Init
 461              	.LVL18:
 423:Core/Src/main.c ****   {
 462              		.loc 1 423 6 discriminator 1 view .LVU122
 463 001c 00B9     		cbnz	r0, .L36
 431:Core/Src/main.c **** 
 464              		.loc 1 431 1 view .LVU123
 465 001e 08BD     		pop	{r3, pc}
 466              	.L36:
 425:Core/Src/main.c ****   }
 467              		.loc 1 425 5 is_stmt 1 view .LVU124
 468 0020 FFF7FEFF 		bl	Error_Handler
 469              	.LVL19:
 470              	.L38:
 471              		.align	2
 472              	.L37:
 473 0024 00000000 		.word	hpcd_USB_FS
 474 0028 005C0040 		.word	1073765376
 475              		.cfi_endproc
 476              	.LFE74:
 478              		.section	.text.SystemClock_Config,"ax",%progbits
 479              		.align	1
 480              		.global	SystemClock_Config
 481              		.syntax unified
 482              		.thumb
 483              		.thumb_func
 485              	SystemClock_Config:
 486              	.LFB71:
 261:Core/Src/main.c ****   RCC_OscInitTypeDef RCC_OscInitStruct = {0};
 487              		.loc 1 261 1 view -0
 488              		.cfi_startproc
 489              		@ args = 0, pretend = 0, frame = 80
 490              		@ frame_needed = 0, uses_anonymous_args = 0
 491 0000 00B5     		push	{lr}
 492              	.LCFI12:
 493              		.cfi_def_cfa_offset 4
 494              		.cfi_offset 14, -4
 495 0002 95B0     		sub	sp, sp, #84
 496              	.LCFI13:
ARM GAS  C:\Users\Miruna\AppData\Local\Temp\ccbGg7G6.s 			page 22


 497              		.cfi_def_cfa_offset 88
 262:Core/Src/main.c ****   RCC_ClkInitTypeDef RCC_ClkInitStruct = {0};
 498              		.loc 1 262 3 view .LVU126
 262:Core/Src/main.c ****   RCC_ClkInitTypeDef RCC_ClkInitStruct = {0};
 499              		.loc 1 262 22 is_stmt 0 view .LVU127
 500 0004 2822     		movs	r2, #40
 501 0006 0021     		movs	r1, #0
 502 0008 0DEB0200 		add	r0, sp, r2
 503 000c FFF7FEFF 		bl	memset
 504              	.LVL20:
 263:Core/Src/main.c ****   RCC_PeriphCLKInitTypeDef PeriphClkInit = {0};
 505              		.loc 1 263 3 is_stmt 1 view .LVU128
 263:Core/Src/main.c ****   RCC_PeriphCLKInitTypeDef PeriphClkInit = {0};
 506              		.loc 1 263 22 is_stmt 0 view .LVU129
 507 0010 0023     		movs	r3, #0
 508 0012 0593     		str	r3, [sp, #20]
 509 0014 0693     		str	r3, [sp, #24]
 510 0016 0793     		str	r3, [sp, #28]
 511 0018 0893     		str	r3, [sp, #32]
 512 001a 0993     		str	r3, [sp, #36]
 264:Core/Src/main.c **** 
 513              		.loc 1 264 3 is_stmt 1 view .LVU130
 264:Core/Src/main.c **** 
 514              		.loc 1 264 28 is_stmt 0 view .LVU131
 515 001c 0193     		str	r3, [sp, #4]
 516 001e 0293     		str	r3, [sp, #8]
 517 0020 0393     		str	r3, [sp, #12]
 518 0022 0493     		str	r3, [sp, #16]
 269:Core/Src/main.c ****   RCC_OscInitStruct.HSEState = RCC_HSE_ON;
 519              		.loc 1 269 3 is_stmt 1 view .LVU132
 269:Core/Src/main.c ****   RCC_OscInitStruct.HSEState = RCC_HSE_ON;
 520              		.loc 1 269 36 is_stmt 0 view .LVU133
 521 0024 0122     		movs	r2, #1
 522 0026 0A92     		str	r2, [sp, #40]
 270:Core/Src/main.c ****   RCC_OscInitStruct.HSEPredivValue = RCC_HSE_PREDIV_DIV1;
 523              		.loc 1 270 3 is_stmt 1 view .LVU134
 270:Core/Src/main.c ****   RCC_OscInitStruct.HSEPredivValue = RCC_HSE_PREDIV_DIV1;
 524              		.loc 1 270 30 is_stmt 0 view .LVU135
 525 0028 4FF48033 		mov	r3, #65536
 526 002c 0B93     		str	r3, [sp, #44]
 271:Core/Src/main.c ****   RCC_OscInitStruct.HSIState = RCC_HSI_ON;
 527              		.loc 1 271 3 is_stmt 1 view .LVU136
 272:Core/Src/main.c ****   RCC_OscInitStruct.PLL.PLLState = RCC_PLL_ON;
 528              		.loc 1 272 3 view .LVU137
 272:Core/Src/main.c ****   RCC_OscInitStruct.PLL.PLLState = RCC_PLL_ON;
 529              		.loc 1 272 30 is_stmt 0 view .LVU138
 530 002e 0E92     		str	r2, [sp, #56]
 273:Core/Src/main.c ****   RCC_OscInitStruct.PLL.PLLSource = RCC_PLLSOURCE_HSE;
 531              		.loc 1 273 3 is_stmt 1 view .LVU139
 273:Core/Src/main.c ****   RCC_OscInitStruct.PLL.PLLSource = RCC_PLLSOURCE_HSE;
 532              		.loc 1 273 34 is_stmt 0 view .LVU140
 533 0030 0222     		movs	r2, #2
 534 0032 1192     		str	r2, [sp, #68]
 274:Core/Src/main.c ****   RCC_OscInitStruct.PLL.PLLMUL = RCC_PLL_MUL9;
 535              		.loc 1 274 3 is_stmt 1 view .LVU141
 274:Core/Src/main.c ****   RCC_OscInitStruct.PLL.PLLMUL = RCC_PLL_MUL9;
 536              		.loc 1 274 35 is_stmt 0 view .LVU142
ARM GAS  C:\Users\Miruna\AppData\Local\Temp\ccbGg7G6.s 			page 23


 537 0034 1293     		str	r3, [sp, #72]
 275:Core/Src/main.c ****   if (HAL_RCC_OscConfig(&RCC_OscInitStruct) != HAL_OK)
 538              		.loc 1 275 3 is_stmt 1 view .LVU143
 275:Core/Src/main.c ****   if (HAL_RCC_OscConfig(&RCC_OscInitStruct) != HAL_OK)
 539              		.loc 1 275 32 is_stmt 0 view .LVU144
 540 0036 4FF4E013 		mov	r3, #1835008
 541 003a 1393     		str	r3, [sp, #76]
 276:Core/Src/main.c ****   {
 542              		.loc 1 276 3 is_stmt 1 view .LVU145
 276:Core/Src/main.c ****   {
 543              		.loc 1 276 7 is_stmt 0 view .LVU146
 544 003c 0AA8     		add	r0, sp, #40
 545 003e FFF7FEFF 		bl	HAL_RCC_OscConfig
 546              	.LVL21:
 276:Core/Src/main.c ****   {
 547              		.loc 1 276 6 discriminator 1 view .LVU147
 548 0042 D8B9     		cbnz	r0, .L44
 283:Core/Src/main.c ****                               |RCC_CLOCKTYPE_PCLK1|RCC_CLOCKTYPE_PCLK2;
 549              		.loc 1 283 3 is_stmt 1 view .LVU148
 283:Core/Src/main.c ****                               |RCC_CLOCKTYPE_PCLK1|RCC_CLOCKTYPE_PCLK2;
 550              		.loc 1 283 31 is_stmt 0 view .LVU149
 551 0044 0F23     		movs	r3, #15
 552 0046 0593     		str	r3, [sp, #20]
 285:Core/Src/main.c ****   RCC_ClkInitStruct.AHBCLKDivider = RCC_SYSCLK_DIV1;
 553              		.loc 1 285 3 is_stmt 1 view .LVU150
 285:Core/Src/main.c ****   RCC_ClkInitStruct.AHBCLKDivider = RCC_SYSCLK_DIV1;
 554              		.loc 1 285 34 is_stmt 0 view .LVU151
 555 0048 0221     		movs	r1, #2
 556 004a 0691     		str	r1, [sp, #24]
 286:Core/Src/main.c ****   RCC_ClkInitStruct.APB1CLKDivider = RCC_HCLK_DIV2;
 557              		.loc 1 286 3 is_stmt 1 view .LVU152
 286:Core/Src/main.c ****   RCC_ClkInitStruct.APB1CLKDivider = RCC_HCLK_DIV2;
 558              		.loc 1 286 35 is_stmt 0 view .LVU153
 559 004c 0023     		movs	r3, #0
 560 004e 0793     		str	r3, [sp, #28]
 287:Core/Src/main.c ****   RCC_ClkInitStruct.APB2CLKDivider = RCC_HCLK_DIV1;
 561              		.loc 1 287 3 is_stmt 1 view .LVU154
 287:Core/Src/main.c ****   RCC_ClkInitStruct.APB2CLKDivider = RCC_HCLK_DIV1;
 562              		.loc 1 287 36 is_stmt 0 view .LVU155
 563 0050 4FF48062 		mov	r2, #1024
 564 0054 0892     		str	r2, [sp, #32]
 288:Core/Src/main.c **** 
 565              		.loc 1 288 3 is_stmt 1 view .LVU156
 288:Core/Src/main.c **** 
 566              		.loc 1 288 36 is_stmt 0 view .LVU157
 567 0056 0993     		str	r3, [sp, #36]
 290:Core/Src/main.c ****   {
 568              		.loc 1 290 3 is_stmt 1 view .LVU158
 290:Core/Src/main.c ****   {
 569              		.loc 1 290 7 is_stmt 0 view .LVU159
 570 0058 05A8     		add	r0, sp, #20
 571 005a FFF7FEFF 		bl	HAL_RCC_ClockConfig
 572              	.LVL22:
 290:Core/Src/main.c ****   {
 573              		.loc 1 290 6 discriminator 1 view .LVU160
 574 005e 78B9     		cbnz	r0, .L45
 294:Core/Src/main.c ****   PeriphClkInit.AdcClockSelection = RCC_ADCPCLK2_DIV6;
ARM GAS  C:\Users\Miruna\AppData\Local\Temp\ccbGg7G6.s 			page 24


 575              		.loc 1 294 3 is_stmt 1 view .LVU161
 294:Core/Src/main.c ****   PeriphClkInit.AdcClockSelection = RCC_ADCPCLK2_DIV6;
 576              		.loc 1 294 38 is_stmt 0 view .LVU162
 577 0060 1223     		movs	r3, #18
 578 0062 0193     		str	r3, [sp, #4]
 295:Core/Src/main.c ****   PeriphClkInit.UsbClockSelection = RCC_USBCLKSOURCE_PLL_DIV1_5;
 579              		.loc 1 295 3 is_stmt 1 view .LVU163
 295:Core/Src/main.c ****   PeriphClkInit.UsbClockSelection = RCC_USBCLKSOURCE_PLL_DIV1_5;
 580              		.loc 1 295 35 is_stmt 0 view .LVU164
 581 0064 4FF40043 		mov	r3, #32768
 582 0068 0393     		str	r3, [sp, #12]
 296:Core/Src/main.c ****   if (HAL_RCCEx_PeriphCLKConfig(&PeriphClkInit) != HAL_OK)
 583              		.loc 1 296 3 is_stmt 1 view .LVU165
 296:Core/Src/main.c ****   if (HAL_RCCEx_PeriphCLKConfig(&PeriphClkInit) != HAL_OK)
 584              		.loc 1 296 35 is_stmt 0 view .LVU166
 585 006a 0023     		movs	r3, #0
 586 006c 0493     		str	r3, [sp, #16]
 297:Core/Src/main.c ****   {
 587              		.loc 1 297 3 is_stmt 1 view .LVU167
 297:Core/Src/main.c ****   {
 588              		.loc 1 297 7 is_stmt 0 view .LVU168
 589 006e 01A8     		add	r0, sp, #4
 590 0070 FFF7FEFF 		bl	HAL_RCCEx_PeriphCLKConfig
 591              	.LVL23:
 297:Core/Src/main.c ****   {
 592              		.loc 1 297 6 discriminator 1 view .LVU169
 593 0074 30B9     		cbnz	r0, .L46
 301:Core/Src/main.c **** 
 594              		.loc 1 301 1 view .LVU170
 595 0076 15B0     		add	sp, sp, #84
 596              	.LCFI14:
 597              		.cfi_remember_state
 598              		.cfi_def_cfa_offset 4
 599              		@ sp needed
 600 0078 5DF804FB 		ldr	pc, [sp], #4
 601              	.L44:
 602              	.LCFI15:
 603              		.cfi_restore_state
 278:Core/Src/main.c ****   }
 604              		.loc 1 278 5 is_stmt 1 view .LVU171
 605 007c FFF7FEFF 		bl	Error_Handler
 606              	.LVL24:
 607              	.L45:
 292:Core/Src/main.c ****   }
 608              		.loc 1 292 5 view .LVU172
 609 0080 FFF7FEFF 		bl	Error_Handler
 610              	.LVL25:
 611              	.L46:
 299:Core/Src/main.c ****   }
 612              		.loc 1 299 5 view .LVU173
 613 0084 FFF7FEFF 		bl	Error_Handler
 614              	.LVL26:
 615              		.cfi_endproc
 616              	.LFE71:
 618              		.global	__aeabi_ui2f
 619              		.global	__aeabi_fadd
 620              		.global	__aeabi_fdiv
ARM GAS  C:\Users\Miruna\AppData\Local\Temp\ccbGg7G6.s 			page 25


 621              		.global	__aeabi_fmul
 622              		.global	__aeabi_f2d
 623              		.section	.rodata.main.str1.4,"aMS",%progbits,1
 624              		.align	2
 625              	.LC0:
 626 0000 4F666673 		.ascii	"Offset %d: %.3f V\015\012\000"
 626      65742025 
 626      643A2025 
 626      2E336620 
 626      560D0A00 
 627              		.global	__aeabi_fsub
 628              		.global	__aeabi_dmul
 629              		.global	__aeabi_ddiv
 630              		.global	__aeabi_d2f
 631              		.global	__aeabi_fcmpgt
 632              		.align	2
 633              	.LC1:
 634 0014 52415720 		.ascii	"RAW   -> X: %lu  Y: %lu  Z: %lu\015\012\000"
 634      20202D3E 
 634      20583A20 
 634      256C7520 
 634      20593A20 
 635 0036 0000     		.align	2
 636              	.LC2:
 637 0038 564F4C54 		.ascii	"VOLT  -> X: %.3f V  Y: %.3f V  Z: %.3f V\015\012\000"
 637      20202D3E 
 637      20583A20 
 637      252E3366 
 637      20562020 
 638 0063 00       		.align	2
 639              	.LC3:
 640 0064 41434345 		.ascii	"ACCEL -> X: %.3f g  Y: %.3f g  Z: %.3f g\015\012\000"
 640      4C202D3E 
 640      20583A20 
 640      252E3366 
 640      20672020 
 641 008f 00       		.align	2
 642              	.LC4:
 643 0090 414E474C 		.ascii	"ANGLE -> X: %.2f\302\260   Y: %.2f\302\260   Z: %.2"
 643      45202D3E 
 643      20583A20 
 643      252E3266 
 643      C2B02020 
 644 00b7 66C2B00D 		.ascii	"f\302\260\015\012\000"
 644      0A00
 645 00bd 000000   		.align	2
 646              	.LC5:
 647 00c0 4759524F 		.ascii	"GYRO  -> X: %.2f dps Y: %.4f dps Z: %.4f dps\015\012"
 647      20202D3E 
 647      20583A20 
 647      252E3266 
 647      20647073 
 648 00ee 00       		.ascii	"\000"
 649 00ef 00       		.align	2
 650              	.LC6:
 651 00f0 2D2D2D2D 		.ascii	"--------------------------------------------------\015"
 651      2D2D2D2D 
ARM GAS  C:\Users\Miruna\AppData\Local\Temp\ccbGg7G6.s 			page 26


 651      2D2D2D2D 
 651      2D2D2D2D 
 651      2D2D2D2D 
 652 0123 00       		.ascii	"\000"
 653              		.section	.text.main,"ax",%progbits
 654              		.align	1
 655              		.global	main
 656              		.syntax unified
 657              		.thumb
 658              		.thumb_func
 660              	main:
 661              	.LFB70:
 131:Core/Src/main.c **** 
 662              		.loc 1 131 1 view -0
 663              		.cfi_startproc
 664              		@ args = 0, pretend = 0, frame = 0
 665              		@ frame_needed = 0, uses_anonymous_args = 0
 666 0000 F0B5     		push	{r4, r5, r6, r7, lr}
 667              	.LCFI16:
 668              		.cfi_def_cfa_offset 20
 669              		.cfi_offset 4, -20
 670              		.cfi_offset 5, -16
 671              		.cfi_offset 6, -12
 672              		.cfi_offset 7, -8
 673              		.cfi_offset 14, -4
 674 0002 85B0     		sub	sp, sp, #20
 675              	.LCFI17:
 676              		.cfi_def_cfa_offset 40
 141:Core/Src/main.c **** 
 677              		.loc 1 141 3 view .LVU175
 678 0004 FFF7FEFF 		bl	HAL_Init
 679              	.LVL27:
 148:Core/Src/main.c **** 
 680              		.loc 1 148 3 view .LVU176
 681 0008 FFF7FEFF 		bl	SystemClock_Config
 682              	.LVL28:
 155:Core/Src/main.c ****   MX_ADC1_Init();   // Inițializează convertorul analog-digital (ADC)
 683              		.loc 1 155 3 view .LVU177
 684 000c FFF7FEFF 		bl	MX_GPIO_Init
 685              	.LVL29:
 156:Core/Src/main.c ****   MX_USART1_UART_Init(); // Inițializează UART-ul pentru comunicare serială
 686              		.loc 1 156 3 view .LVU178
 687 0010 FFF7FEFF 		bl	MX_ADC1_Init
 688              	.LVL30:
 157:Core/Src/main.c ****   MX_USB_PCD_Init(); // Inițializează USB 
 689              		.loc 1 157 3 view .LVU179
 690 0014 FFF7FEFF 		bl	MX_USART1_UART_Init
 691              	.LVL31:
 158:Core/Src/main.c ****   /* USER CODE BEGIN 2 */
 692              		.loc 1 158 3 view .LVU180
 693 0018 FFF7FEFF 		bl	MX_USB_PCD_Init
 694              	.LVL32:
 167:Core/Src/main.c **** for (int n = 0; n < 100; n++) {
 695              		.loc 1 167 1 view .LVU181
 696              	.LBB8:
 167:Core/Src/main.c **** for (int n = 0; n < 100; n++) {
 697              		.loc 1 167 6 view .LVU182
ARM GAS  C:\Users\Miruna\AppData\Local\Temp\ccbGg7G6.s 			page 27


 167:Core/Src/main.c **** for (int n = 0; n < 100; n++) {
 698              		.loc 1 167 10 is_stmt 0 view .LVU183
 699 001c 0023     		movs	r3, #0
 167:Core/Src/main.c **** for (int n = 0; n < 100; n++) {
 700              		.loc 1 167 1 view .LVU184
 701 001e 04E0     		b	.L48
 702              	.LVL33:
 703              	.L49:
 167:Core/Src/main.c **** for (int n = 0; n < 100; n++) {
 704              		.loc 1 167 29 is_stmt 1 discriminator 3 view .LVU185
 167:Core/Src/main.c **** for (int n = 0; n < 100; n++) {
 705              		.loc 1 167 39 is_stmt 0 discriminator 3 view .LVU186
 706 0020 AB4A     		ldr	r2, .L70+8
 707 0022 0021     		movs	r1, #0
 708 0024 42F82310 		str	r1, [r2, r3, lsl #2]	@ float
 167:Core/Src/main.c **** for (int n = 0; n < 100; n++) {
 709              		.loc 1 167 25 is_stmt 1 discriminator 3 view .LVU187
 710 0028 0133     		adds	r3, r3, #1
 711              	.LVL34:
 712              	.L48:
 167:Core/Src/main.c **** for (int n = 0; n < 100; n++) {
 713              		.loc 1 167 19 discriminator 1 view .LVU188
 714 002a 022B     		cmp	r3, #2
 715 002c F8DD     		ble	.L49
 716              	.LBE8:
 717              	.LBB9:
 168:Core/Src/main.c ****     for (int i = 0; i < 3; i++) {
 718              		.loc 1 168 10 is_stmt 0 view .LVU189
 719 002e 0027     		movs	r7, #0
 720 0030 18E0     		b	.L50
 721              	.LVL35:
 722              	.L51:
 723              	.LBB10:
 170:Core/Src/main.c ****         HAL_ADC_PollForConversion(&hadc1, 1);
 724              		.loc 1 170 9 is_stmt 1 view .LVU190
 725 0032 A84D     		ldr	r5, .L70+12
 726 0034 2846     		mov	r0, r5
 727 0036 FFF7FEFF 		bl	HAL_ADC_Start
 728              	.LVL36:
 171:Core/Src/main.c ****         offset[i] += HAL_ADC_GetValue(&hadc1);
 729              		.loc 1 171 9 view .LVU191
 730 003a 0121     		movs	r1, #1
 731 003c 2846     		mov	r0, r5
 732 003e FFF7FEFF 		bl	HAL_ADC_PollForConversion
 733              	.LVL37:
 172:Core/Src/main.c ****     }
 734              		.loc 1 172 9 view .LVU192
 172:Core/Src/main.c ****     }
 735              		.loc 1 172 22 is_stmt 0 view .LVU193
 736 0042 2846     		mov	r0, r5
 737 0044 FFF7FEFF 		bl	HAL_ADC_GetValue
 738              	.LVL38:
 172:Core/Src/main.c ****     }
 739              		.loc 1 172 15 discriminator 1 view .LVU194
 740 0048 A14D     		ldr	r5, .L70+8
 741 004a 55F82460 		ldr	r6, [r5, r4, lsl #2]	@ float
 172:Core/Src/main.c ****     }
ARM GAS  C:\Users\Miruna\AppData\Local\Temp\ccbGg7G6.s 			page 28


 742              		.loc 1 172 19 discriminator 1 view .LVU195
 743 004e FFF7FEFF 		bl	__aeabi_ui2f
 744              	.LVL39:
 745 0052 3146     		mov	r1, r6
 746 0054 FFF7FEFF 		bl	__aeabi_fadd
 747              	.LVL40:
 748 0058 45F82400 		str	r0, [r5, r4, lsl #2]	@ float
 169:Core/Src/main.c ****         HAL_ADC_Start(&hadc1);
 749              		.loc 1 169 29 is_stmt 1 discriminator 3 view .LVU196
 750 005c 0134     		adds	r4, r4, #1
 751              	.LVL41:
 752              	.L52:
 169:Core/Src/main.c ****         HAL_ADC_Start(&hadc1);
 753              		.loc 1 169 23 discriminator 1 view .LVU197
 754 005e 022C     		cmp	r4, #2
 755 0060 E7DD     		ble	.L51
 756              	.LBE10:
 168:Core/Src/main.c ****     for (int i = 0; i < 3; i++) {
 757              		.loc 1 168 27 discriminator 2 view .LVU198
 758 0062 0137     		adds	r7, r7, #1
 759              	.LVL42:
 760              	.L50:
 168:Core/Src/main.c ****     for (int i = 0; i < 3; i++) {
 761              		.loc 1 168 19 discriminator 1 view .LVU199
 762 0064 632F     		cmp	r7, #99
 763 0066 01DC     		bgt	.L67
 764              	.LBB11:
 169:Core/Src/main.c ****         HAL_ADC_Start(&hadc1);
 765              		.loc 1 169 14 is_stmt 0 view .LVU200
 766 0068 0024     		movs	r4, #0
 767 006a F8E7     		b	.L52
 768              	.L67:
 769              	.LBE11:
 770              	.LBE9:
 771              	.LBB12:
 175:Core/Src/main.c **** {offset[i] /= 100.0f;
 772              		.loc 1 175 10 view .LVU201
 773 006c 0024     		movs	r4, #0
 774 006e 18E0     		b	.L53
 775              	.LVL43:
 776              	.L54:
 176:Core/Src/main.c **** offset[i] = (offset[i] * 3.3f) / 4095.0f; // Conversie la voltaj
 777              		.loc 1 176 2 is_stmt 1 view .LVU202
 176:Core/Src/main.c **** offset[i] = (offset[i] * 3.3f) / 4095.0f; // Conversie la voltaj
 778              		.loc 1 176 8 is_stmt 0 view .LVU203
 779 0070 974D     		ldr	r5, .L70+8
 176:Core/Src/main.c **** offset[i] = (offset[i] * 3.3f) / 4095.0f; // Conversie la voltaj
 780              		.loc 1 176 12 view .LVU204
 781 0072 9949     		ldr	r1, .L70+16
 782 0074 55F82400 		ldr	r0, [r5, r4, lsl #2]	@ float
 783 0078 FFF7FEFF 		bl	__aeabi_fdiv
 784              	.LVL44:
 785 007c 45F82400 		str	r0, [r5, r4, lsl #2]	@ float
 177:Core/Src/main.c **** printf("Offset %d: %.3f V\r\n", i, offset[i]);
 786              		.loc 1 177 1 is_stmt 1 view .LVU205
 177:Core/Src/main.c **** printf("Offset %d: %.3f V\r\n", i, offset[i]);
 787              		.loc 1 177 24 is_stmt 0 view .LVU206
ARM GAS  C:\Users\Miruna\AppData\Local\Temp\ccbGg7G6.s 			page 29


 788 0080 9649     		ldr	r1, .L70+20
 789 0082 FFF7FEFF 		bl	__aeabi_fmul
 790              	.LVL45:
 177:Core/Src/main.c **** printf("Offset %d: %.3f V\r\n", i, offset[i]);
 791              		.loc 1 177 32 view .LVU207
 792 0086 9649     		ldr	r1, .L70+24
 793 0088 FFF7FEFF 		bl	__aeabi_fdiv
 794              	.LVL46:
 177:Core/Src/main.c **** printf("Offset %d: %.3f V\r\n", i, offset[i]);
 795              		.loc 1 177 11 view .LVU208
 796 008c 45F82400 		str	r0, [r5, r4, lsl #2]	@ float
 178:Core/Src/main.c **** }
 797              		.loc 1 178 1 is_stmt 1 view .LVU209
 798 0090 FFF7FEFF 		bl	__aeabi_f2d
 799              	.LVL47:
 800 0094 0246     		mov	r2, r0
 801 0096 0B46     		mov	r3, r1
 802 0098 2146     		mov	r1, r4
 803 009a 9248     		ldr	r0, .L70+28
 804 009c FFF7FEFF 		bl	printf
 805              	.LVL48:
 175:Core/Src/main.c **** {offset[i] /= 100.0f;
 806              		.loc 1 175 25 discriminator 3 view .LVU210
 807 00a0 0134     		adds	r4, r4, #1
 808              	.LVL49:
 809              	.L53:
 175:Core/Src/main.c **** {offset[i] /= 100.0f;
 810              		.loc 1 175 19 discriminator 1 view .LVU211
 811 00a2 022C     		cmp	r4, #2
 812 00a4 E4DD     		ble	.L54
 813              	.LBE12:
 180:Core/Src/main.c ****   /* USER CODE END 2 */
 814              		.loc 1 180 1 view .LVU212
 180:Core/Src/main.c ****   /* USER CODE END 2 */
 815              		.loc 1 180 18 is_stmt 0 view .LVU213
 816 00a6 8A4C     		ldr	r4, .L70+8
 817              	.LVL50:
 180:Core/Src/main.c ****   /* USER CODE END 2 */
 818              		.loc 1 180 21 view .LVU214
 819 00a8 6168     		ldr	r1, [r4, #4]	@ float
 820 00aa 2068     		ldr	r0, [r4]	@ float
 821 00ac FFF7FEFF 		bl	__aeabi_fadd
 822              	.LVL51:
 180:Core/Src/main.c ****   /* USER CODE END 2 */
 823              		.loc 1 180 32 view .LVU215
 824 00b0 4FF07C51 		mov	r1, #1056964608
 825 00b4 FFF7FEFF 		bl	__aeabi_fmul
 826              	.LVL52:
 180:Core/Src/main.c ****   /* USER CODE END 2 */
 827              		.loc 1 180 10 view .LVU216
 828 00b8 A060     		str	r0, [r4, #8]	@ float
 829 00ba 02E1     		b	.L62
 830              	.LVL53:
 831              	.L69:
 832              	.LBB13:
 833              	.LBB14:
 217:Core/Src/main.c ****         else if (i == 1)
ARM GAS  C:\Users\Miruna\AppData\Local\Temp\ccbGg7G6.s 			page 30


 834              		.loc 1 217 13 is_stmt 1 view .LVU217
 217:Core/Src/main.c ****         else if (i == 1)
 835              		.loc 1 217 36 is_stmt 0 view .LVU218
 836 00bc 8A4B     		ldr	r3, .L70+32
 217:Core/Src/main.c ****         else if (i == 1)
 837              		.loc 1 217 39 view .LVU219
 838 00be 9968     		ldr	r1, [r3, #8]	@ float
 839 00c0 1868     		ldr	r0, [r3]	@ float
 840 00c2 FFF7FEFF 		bl	__aeabi_fdiv
 841              	.LVL54:
 217:Core/Src/main.c ****         else if (i == 1)
 842              		.loc 1 217 24 view .LVU220
 843 00c6 FFF7FEFF 		bl	__aeabi_f2d
 844              	.LVL55:
 845 00ca FFF7FEFF 		bl	atan
 846              	.LVL56:
 217:Core/Src/main.c ****         else if (i == 1)
 847              		.loc 1 217 52 discriminator 1 view .LVU221
 848 00ce 0022     		movs	r2, #0
 849 00d0 864B     		ldr	r3, .L70+36
 850 00d2 FFF7FEFF 		bl	__aeabi_dmul
 851              	.LVL57:
 217:Core/Src/main.c ****         else if (i == 1)
 852              		.loc 1 217 61 discriminator 1 view .LVU222
 853 00d6 7CA3     		adr	r3, .L70
 854 00d8 D3E90023 		ldrd	r2, [r3]
 855 00dc FFF7FEFF 		bl	__aeabi_ddiv
 856              	.LVL58:
 857 00e0 FFF7FEFF 		bl	__aeabi_d2f
 858              	.LVL59:
 217:Core/Src/main.c ****         else if (i == 1)
 859              		.loc 1 217 22 discriminator 1 view .LVU223
 860 00e4 824B     		ldr	r3, .L70+40
 861 00e6 43F82400 		str	r0, [r3, r4, lsl #2]	@ float
 862              	.L57:
 222:Core/Src/main.c ****         delta_t[i] = time_now - time_prev[i]; // Calculează diferența de timp
 863              		.loc 1 222 9 is_stmt 1 view .LVU224
 222:Core/Src/main.c ****         delta_t[i] = time_now - time_prev[i]; // Calculează diferența de timp
 864              		.loc 1 222 29 is_stmt 0 view .LVU225
 865 00ea FFF7FEFF 		bl	HAL_GetTick
 866              	.LVL60:
 867 00ee 0546     		mov	r5, r0
 868              	.LVL61:
 223:Core/Src/main.c ****         time_prev[i] = time_now; // Salvează timpul curent pentru următoarea iterație
 869              		.loc 1 223 9 is_stmt 1 view .LVU226
 223:Core/Src/main.c ****         time_prev[i] = time_now; // Salvează timpul curent pentru următoarea iterație
 870              		.loc 1 223 42 is_stmt 0 view .LVU227
 871 00f0 804F     		ldr	r7, .L70+44
 872 00f2 57F82400 		ldr	r0, [r7, r4, lsl #2]
 873              	.LVL62:
 223:Core/Src/main.c ****         time_prev[i] = time_now; // Salvează timpul curent pentru următoarea iterație
 874              		.loc 1 223 20 view .LVU228
 875 00f6 804E     		ldr	r6, .L70+48
 876 00f8 281A     		subs	r0, r5, r0
 877 00fa FFF7FEFF 		bl	__aeabi_ui2f
 878              	.LVL63:
 879 00fe 46F82400 		str	r0, [r6, r4, lsl #2]	@ float
ARM GAS  C:\Users\Miruna\AppData\Local\Temp\ccbGg7G6.s 			page 31


 224:Core/Src/main.c ****         
 880              		.loc 1 224 9 is_stmt 1 view .LVU229
 224:Core/Src/main.c ****         
 881              		.loc 1 224 22 is_stmt 0 view .LVU230
 882 0102 47F82450 		str	r5, [r7, r4, lsl #2]
 226:Core/Src/main.c ****         // 6. Calcul viteza unghiulara (grade/secunda)
 883              		.loc 1 226 9 is_stmt 1 view .LVU231
 884 0106 6420     		movs	r0, #100
 885 0108 FFF7FEFF 		bl	HAL_Delay
 886              	.LVL64:
 228:Core/Src/main.c ****             gyro[i] = (unghi[i] - unghi_anterior[i]) / (delta_t[i] / 1000.0f); // Calcul viteza ung
 887              		.loc 1 228 9 view .LVU232
 228:Core/Src/main.c ****             gyro[i] = (unghi[i] - unghi_anterior[i]) / (delta_t[i] / 1000.0f); // Calcul viteza ung
 888              		.loc 1 228 20 is_stmt 0 view .LVU233
 889 010c 56F82450 		ldr	r5, [r6, r4, lsl #2]	@ float
 890              	.LVL65:
 228:Core/Src/main.c ****             gyro[i] = (unghi[i] - unghi_anterior[i]) / (delta_t[i] / 1000.0f); // Calcul viteza ung
 891              		.loc 1 228 12 view .LVU234
 892 0110 0021     		movs	r1, #0
 893 0112 2846     		mov	r0, r5
 894 0114 FFF7FEFF 		bl	__aeabi_fcmpgt
 895              	.LVL66:
 896 0118 0028     		cmp	r0, #0
 897 011a 5CD0     		beq	.L65
 229:Core/Src/main.c **** 
 898              		.loc 1 229 13 is_stmt 1 view .LVU235
 229:Core/Src/main.c **** 
 899              		.loc 1 229 33 is_stmt 0 view .LVU236
 900 011c 774B     		ldr	r3, .L70+52
 901 011e 53F82410 		ldr	r1, [r3, r4, lsl #2]	@ float
 902 0122 734B     		ldr	r3, .L70+40
 903 0124 53F82400 		ldr	r0, [r3, r4, lsl #2]	@ float
 904 0128 FFF7FEFF 		bl	__aeabi_fsub
 905              	.LVL67:
 906 012c 0646     		mov	r6, r0
 229:Core/Src/main.c **** 
 907              		.loc 1 229 68 view .LVU237
 908 012e 7449     		ldr	r1, .L70+56
 909 0130 2846     		mov	r0, r5
 910 0132 FFF7FEFF 		bl	__aeabi_fdiv
 911              	.LVL68:
 912 0136 0146     		mov	r1, r0
 229:Core/Src/main.c **** 
 913              		.loc 1 229 54 view .LVU238
 914 0138 3046     		mov	r0, r6
 915 013a FFF7FEFF 		bl	__aeabi_fdiv
 916              	.LVL69:
 229:Core/Src/main.c **** 
 917              		.loc 1 229 21 view .LVU239
 918 013e 714B     		ldr	r3, .L70+60
 919 0140 43F82400 		str	r0, [r3, r4, lsl #2]	@ float
 920              	.L60:
 229:Core/Src/main.c **** 
 921              		.loc 1 229 21 view .LVU240
 922              	.LBE14:
 197:Core/Src/main.c ****     {
 923              		.loc 1 197 26 is_stmt 1 discriminator 2 view .LVU241
ARM GAS  C:\Users\Miruna\AppData\Local\Temp\ccbGg7G6.s 			page 32


 924 0144 0134     		adds	r4, r4, #1
 925              	.LVL70:
 926              	.L55:
 197:Core/Src/main.c ****     {
 927              		.loc 1 197 21 discriminator 1 view .LVU242
 928 0146 022C     		cmp	r4, #2
 929 0148 4ADC     		bgt	.L68
 930              	.LBB15:
 200:Core/Src/main.c ****         HAL_ADC_PollForConversion(&hadc1, 1); // Asteapta conversia
 931              		.loc 1 200 9 view .LVU243
 932 014a 624D     		ldr	r5, .L70+12
 933 014c 2846     		mov	r0, r5
 934 014e FFF7FEFF 		bl	HAL_ADC_Start
 935              	.LVL71:
 201:Core/Src/main.c ****         adc_raw[i] = HAL_ADC_GetValue(&hadc1); // Citeste valoarea ADC
 936              		.loc 1 201 9 view .LVU244
 937 0152 0121     		movs	r1, #1
 938 0154 2846     		mov	r0, r5
 939 0156 FFF7FEFF 		bl	HAL_ADC_PollForConversion
 940              	.LVL72:
 202:Core/Src/main.c **** 
 941              		.loc 1 202 9 view .LVU245
 202:Core/Src/main.c **** 
 942              		.loc 1 202 22 is_stmt 0 view .LVU246
 943 015a 2846     		mov	r0, r5
 944 015c FFF7FEFF 		bl	HAL_ADC_GetValue
 945              	.LVL73:
 202:Core/Src/main.c **** 
 946              		.loc 1 202 20 discriminator 1 view .LVU247
 947 0160 694B     		ldr	r3, .L70+64
 948 0162 43F82400 		str	r0, [r3, r4, lsl #2]
 205:Core/Src/main.c **** 
 949              		.loc 1 205 9 is_stmt 1 view .LVU248
 205:Core/Src/main.c **** 
 950              		.loc 1 205 35 is_stmt 0 view .LVU249
 951 0166 FFF7FEFF 		bl	__aeabi_ui2f
 952              	.LVL74:
 953 016a 5C49     		ldr	r1, .L70+20
 954 016c FFF7FEFF 		bl	__aeabi_fmul
 955              	.LVL75:
 205:Core/Src/main.c **** 
 956              		.loc 1 205 43 view .LVU250
 957 0170 5B49     		ldr	r1, .L70+24
 958 0172 FFF7FEFF 		bl	__aeabi_fdiv
 959              	.LVL76:
 205:Core/Src/main.c **** 
 960              		.loc 1 205 21 view .LVU251
 961 0176 654B     		ldr	r3, .L70+68
 962 0178 43F82400 		str	r0, [r3, r4, lsl #2]	@ float
 210:Core/Src/main.c **** 
 963              		.loc 1 210 9 is_stmt 1 view .LVU252
 210:Core/Src/main.c **** 
 964              		.loc 1 210 35 is_stmt 0 view .LVU253
 965 017c 544B     		ldr	r3, .L70+8
 966 017e 53F82410 		ldr	r1, [r3, r4, lsl #2]	@ float
 967 0182 FFF7FEFF 		bl	__aeabi_fsub
 968              	.LVL77:
ARM GAS  C:\Users\Miruna\AppData\Local\Temp\ccbGg7G6.s 			page 33


 210:Core/Src/main.c **** 
 969              		.loc 1 210 48 view .LVU254
 970 0186 6249     		ldr	r1, .L70+72
 971 0188 FFF7FEFF 		bl	__aeabi_fdiv
 972              	.LVL78:
 210:Core/Src/main.c **** 
 973              		.loc 1 210 20 view .LVU255
 974 018c 564B     		ldr	r3, .L70+32
 975 018e 43F82400 		str	r0, [r3, r4, lsl #2]	@ float
 214:Core/Src/main.c ****         // Pentru X și Y folosește formula clasică de tilt (atenție la axa de referință!)
 976              		.loc 1 214 9 is_stmt 1 view .LVU256
 214:Core/Src/main.c ****         // Pentru X și Y folosește formula clasică de tilt (atenție la axa de referință!)
 977              		.loc 1 214 34 is_stmt 0 view .LVU257
 978 0192 574B     		ldr	r3, .L70+40
 979 0194 53F82420 		ldr	r2, [r3, r4, lsl #2]	@ float
 214:Core/Src/main.c ****         // Pentru X și Y folosește formula clasică de tilt (atenție la axa de referință!)
 980              		.loc 1 214 27 view .LVU258
 981 0198 584B     		ldr	r3, .L70+52
 982 019a 43F82420 		str	r2, [r3, r4, lsl #2]	@ float
 216:Core/Src/main.c ****             unghi[i] = atan(adc_acc[0]/adc_acc[2]) * 180.0f / 3.1415f; // Roll (X)
 983              		.loc 1 216 9 is_stmt 1 view .LVU259
 216:Core/Src/main.c ****             unghi[i] = atan(adc_acc[0]/adc_acc[2]) * 180.0f / 3.1415f; // Roll (X)
 984              		.loc 1 216 12 is_stmt 0 view .LVU260
 985 019e 002C     		cmp	r4, #0
 986 01a0 8CD0     		beq	.L69
 218:Core/Src/main.c ****             unghi[i] = atan(adc_acc[1]/adc_acc[2]) * 180.0f / 3.1415f; // Pitch (Y)
 987              		.loc 1 218 14 is_stmt 1 view .LVU261
 218:Core/Src/main.c ****             unghi[i] = atan(adc_acc[1]/adc_acc[2]) * 180.0f / 3.1415f; // Pitch (Y)
 988              		.loc 1 218 17 is_stmt 0 view .LVU262
 989 01a2 012C     		cmp	r4, #1
 990 01a4 A1D1     		bne	.L57
 219:Core/Src/main.c ****         
 991              		.loc 1 219 13 is_stmt 1 view .LVU263
 219:Core/Src/main.c ****         
 992              		.loc 1 219 36 is_stmt 0 view .LVU264
 993 01a6 504B     		ldr	r3, .L70+32
 219:Core/Src/main.c ****         
 994              		.loc 1 219 39 view .LVU265
 995 01a8 9968     		ldr	r1, [r3, #8]	@ float
 996 01aa 5868     		ldr	r0, [r3, #4]	@ float
 997 01ac FFF7FEFF 		bl	__aeabi_fdiv
 998              	.LVL79:
 219:Core/Src/main.c ****         
 999              		.loc 1 219 24 view .LVU266
 1000 01b0 FFF7FEFF 		bl	__aeabi_f2d
 1001              	.LVL80:
 1002 01b4 FFF7FEFF 		bl	atan
 1003              	.LVL81:
 219:Core/Src/main.c ****         
 1004              		.loc 1 219 52 discriminator 1 view .LVU267
 1005 01b8 0022     		movs	r2, #0
 1006 01ba 4C4B     		ldr	r3, .L70+36
 1007 01bc FFF7FEFF 		bl	__aeabi_dmul
 1008              	.LVL82:
 219:Core/Src/main.c ****         
 1009              		.loc 1 219 61 discriminator 1 view .LVU268
 1010 01c0 41A3     		adr	r3, .L70
ARM GAS  C:\Users\Miruna\AppData\Local\Temp\ccbGg7G6.s 			page 34


 1011 01c2 D3E90023 		ldrd	r2, [r3]
 1012 01c6 FFF7FEFF 		bl	__aeabi_ddiv
 1013              	.LVL83:
 1014 01ca FFF7FEFF 		bl	__aeabi_d2f
 1015              	.LVL84:
 219:Core/Src/main.c ****         
 1016              		.loc 1 219 22 discriminator 1 view .LVU269
 1017 01ce 484B     		ldr	r3, .L70+40
 1018 01d0 43F82400 		str	r0, [r3, r4, lsl #2]	@ float
 1019 01d4 89E7     		b	.L57
 1020              	.LVL85:
 1021              	.L65:
 232:Core/Src/main.c ****     }
 1022              		.loc 1 232 13 is_stmt 1 view .LVU270
 232:Core/Src/main.c ****     }
 1023              		.loc 1 232 21 is_stmt 0 view .LVU271
 1024 01d6 4B4B     		ldr	r3, .L70+60
 1025 01d8 0022     		movs	r2, #0
 1026 01da 43F82420 		str	r2, [r3, r4, lsl #2]	@ float
 1027 01de B1E7     		b	.L60
 1028              	.LVL86:
 1029              	.L68:
 232:Core/Src/main.c ****     }
 1030              		.loc 1 232 21 view .LVU272
 1031              	.LBE15:
 1032              	.LBE13:
 236:Core/Src/main.c ****     printf("RAW   -> X: %lu  Y: %lu  Z: %lu\r\n", adc_raw[0], adc_raw[1], adc_raw[2]);
 1033              		.loc 1 236 5 is_stmt 1 view .LVU273
 1034 01e0 4FF47A70 		mov	r0, #1000
 1035 01e4 FFF7FEFF 		bl	HAL_Delay
 1036              	.LVL87:
 237:Core/Src/main.c ****    
 1037              		.loc 1 237 5 view .LVU274
 1038 01e8 4749     		ldr	r1, .L70+64
 1039 01ea 8B68     		ldr	r3, [r1, #8]
 1040 01ec 4A68     		ldr	r2, [r1, #4]
 1041 01ee 0968     		ldr	r1, [r1]
 1042 01f0 4848     		ldr	r0, .L70+76
 1043 01f2 FFF7FEFF 		bl	printf
 1044              	.LVL88:
 239:Core/Src/main.c ****     
 1045              		.loc 1 239 5 view .LVU275
 239:Core/Src/main.c ****     
 1046              		.loc 1 239 68 is_stmt 0 view .LVU276
 1047 01f6 454B     		ldr	r3, .L70+68
 239:Core/Src/main.c ****     
 1048              		.loc 1 239 81 view .LVU277
 1049 01f8 5E68     		ldr	r6, [r3, #4]	@ float
 239:Core/Src/main.c ****     
 1050              		.loc 1 239 94 view .LVU278
 1051 01fa 9F68     		ldr	r7, [r3, #8]	@ float
 239:Core/Src/main.c ****     
 1052              		.loc 1 239 5 view .LVU279
 1053 01fc 1868     		ldr	r0, [r3]	@ float
 1054 01fe FFF7FEFF 		bl	__aeabi_f2d
 1055              	.LVL89:
 1056 0202 0446     		mov	r4, r0
ARM GAS  C:\Users\Miruna\AppData\Local\Temp\ccbGg7G6.s 			page 35


 1057              	.LVL90:
 239:Core/Src/main.c ****     
 1058              		.loc 1 239 5 view .LVU280
 1059 0204 0D46     		mov	r5, r1
 1060 0206 3846     		mov	r0, r7
 1061 0208 FFF7FEFF 		bl	__aeabi_f2d
 1062              	.LVL91:
 1063 020c CDE90201 		strd	r0, [sp, #8]
 1064 0210 3046     		mov	r0, r6
 1065 0212 FFF7FEFF 		bl	__aeabi_f2d
 1066              	.LVL92:
 1067 0216 CDE90001 		strd	r0, [sp]
 1068 021a 2246     		mov	r2, r4
 1069 021c 2B46     		mov	r3, r5
 1070 021e 3E48     		ldr	r0, .L70+80
 1071 0220 FFF7FEFF 		bl	printf
 1072              	.LVL93:
 241:Core/Src/main.c ****     HAL_Delay(100);
 1073              		.loc 1 241 5 is_stmt 1 view .LVU281
 241:Core/Src/main.c ****     HAL_Delay(100);
 1074              		.loc 1 241 67 is_stmt 0 view .LVU282
 1075 0224 304B     		ldr	r3, .L70+32
 241:Core/Src/main.c ****     HAL_Delay(100);
 1076              		.loc 1 241 79 view .LVU283
 1077 0226 5E68     		ldr	r6, [r3, #4]	@ float
 241:Core/Src/main.c ****     HAL_Delay(100);
 1078              		.loc 1 241 91 view .LVU284
 1079 0228 9F68     		ldr	r7, [r3, #8]	@ float
 241:Core/Src/main.c ****     HAL_Delay(100);
 1080              		.loc 1 241 5 view .LVU285
 1081 022a 1868     		ldr	r0, [r3]	@ float
 1082 022c FFF7FEFF 		bl	__aeabi_f2d
 1083              	.LVL94:
 1084 0230 0446     		mov	r4, r0
 1085 0232 0D46     		mov	r5, r1
 1086 0234 3846     		mov	r0, r7
 1087 0236 FFF7FEFF 		bl	__aeabi_f2d
 1088              	.LVL95:
 1089 023a CDE90201 		strd	r0, [sp, #8]
 1090 023e 3046     		mov	r0, r6
 1091 0240 FFF7FEFF 		bl	__aeabi_f2d
 1092              	.LVL96:
 1093 0244 CDE90001 		strd	r0, [sp]
 1094 0248 2246     		mov	r2, r4
 1095 024a 2B46     		mov	r3, r5
 1096 024c 3348     		ldr	r0, .L70+84
 1097 024e FFF7FEFF 		bl	printf
 1098              	.LVL97:
 242:Core/Src/main.c ****     printf("ANGLE -> X: %.2f°   Y: %.2f°   Z: %.2f°\r\n", unghi[0], unghi[1], unghi[2]);
 1099              		.loc 1 242 5 is_stmt 1 view .LVU286
 1100 0252 6420     		movs	r0, #100
 1101 0254 FFF7FEFF 		bl	HAL_Delay
 1102              	.LVL98:
 243:Core/Src/main.c ****     
 1103              		.loc 1 243 5 view .LVU287
 243:Core/Src/main.c ****     
 1104              		.loc 1 243 67 is_stmt 0 view .LVU288
ARM GAS  C:\Users\Miruna\AppData\Local\Temp\ccbGg7G6.s 			page 36


 1105 0258 254B     		ldr	r3, .L70+40
 243:Core/Src/main.c ****     
 1106              		.loc 1 243 77 view .LVU289
 1107 025a 5E68     		ldr	r6, [r3, #4]	@ float
 243:Core/Src/main.c ****     
 1108              		.loc 1 243 87 view .LVU290
 1109 025c 9F68     		ldr	r7, [r3, #8]	@ float
 243:Core/Src/main.c ****     
 1110              		.loc 1 243 5 view .LVU291
 1111 025e 1868     		ldr	r0, [r3]	@ float
 1112 0260 FFF7FEFF 		bl	__aeabi_f2d
 1113              	.LVL99:
 1114 0264 0446     		mov	r4, r0
 1115 0266 0D46     		mov	r5, r1
 1116 0268 3846     		mov	r0, r7
 1117 026a FFF7FEFF 		bl	__aeabi_f2d
 1118              	.LVL100:
 1119 026e CDE90201 		strd	r0, [sp, #8]
 1120 0272 3046     		mov	r0, r6
 1121 0274 FFF7FEFF 		bl	__aeabi_f2d
 1122              	.LVL101:
 1123 0278 CDE90001 		strd	r0, [sp]
 1124 027c 2246     		mov	r2, r4
 1125 027e 2B46     		mov	r3, r5
 1126 0280 2748     		ldr	r0, .L70+88
 1127 0282 FFF7FEFF 		bl	printf
 1128              	.LVL102:
 245:Core/Src/main.c ****     printf("--------------------------------------------------\r\n");
 1129              		.loc 1 245 5 is_stmt 1 view .LVU292
 245:Core/Src/main.c ****     printf("--------------------------------------------------\r\n");
 1130              		.loc 1 245 68 is_stmt 0 view .LVU293
 1131 0286 1F4B     		ldr	r3, .L70+60
 245:Core/Src/main.c ****     printf("--------------------------------------------------\r\n");
 1132              		.loc 1 245 77 view .LVU294
 1133 0288 5E68     		ldr	r6, [r3, #4]	@ float
 245:Core/Src/main.c ****     printf("--------------------------------------------------\r\n");
 1134              		.loc 1 245 86 view .LVU295
 1135 028a 9F68     		ldr	r7, [r3, #8]	@ float
 245:Core/Src/main.c ****     printf("--------------------------------------------------\r\n");
 1136              		.loc 1 245 5 view .LVU296
 1137 028c 1868     		ldr	r0, [r3]	@ float
 1138 028e FFF7FEFF 		bl	__aeabi_f2d
 1139              	.LVL103:
 1140 0292 0446     		mov	r4, r0
 1141 0294 0D46     		mov	r5, r1
 1142 0296 3846     		mov	r0, r7
 1143 0298 FFF7FEFF 		bl	__aeabi_f2d
 1144              	.LVL104:
 1145 029c CDE90201 		strd	r0, [sp, #8]
 1146 02a0 3046     		mov	r0, r6
 1147 02a2 FFF7FEFF 		bl	__aeabi_f2d
 1148              	.LVL105:
 1149 02a6 CDE90001 		strd	r0, [sp]
 1150 02aa 2246     		mov	r2, r4
 1151 02ac 2B46     		mov	r3, r5
 1152 02ae 1D48     		ldr	r0, .L70+92
 1153 02b0 FFF7FEFF 		bl	printf
ARM GAS  C:\Users\Miruna\AppData\Local\Temp\ccbGg7G6.s 			page 37


 1154              	.LVL106:
 246:Core/Src/main.c **** 
 1155              		.loc 1 246 5 is_stmt 1 view .LVU297
 1156 02b4 1C48     		ldr	r0, .L70+96
 1157 02b6 FFF7FEFF 		bl	puts
 1158              	.LVL107:
 248:Core/Src/main.c **** 
 1159              		.loc 1 248 5 view .LVU298
 1160 02ba 4FF47A70 		mov	r0, #1000
 1161 02be FFF7FEFF 		bl	HAL_Delay
 1162              	.LVL108:
 185:Core/Src/main.c ****   {
 1163              		.loc 1 185 9 view .LVU299
 1164              	.L62:
 185:Core/Src/main.c ****   {
 1165              		.loc 1 185 3 view .LVU300
 197:Core/Src/main.c ****     {
 1166              		.loc 1 197 3 view .LVU301
 1167              	.LBB16:
 197:Core/Src/main.c ****     {
 1168              		.loc 1 197 8 view .LVU302
 197:Core/Src/main.c ****     {
 1169              		.loc 1 197 12 is_stmt 0 view .LVU303
 1170 02c2 0024     		movs	r4, #0
 197:Core/Src/main.c ****     {
 1171              		.loc 1 197 3 view .LVU304
 1172 02c4 3FE7     		b	.L55
 1173              	.L71:
 1174 02c6 00BF     		.align	3
 1175              	.L70:
 1176 02c8 000000C0 		.word	-1073741824
 1177 02cc CA210940 		.word	1074340298
 1178 02d0 00000000 		.word	offset
 1179 02d4 00000000 		.word	hadc1
 1180 02d8 0000C842 		.word	1120403456
 1181 02dc 33335340 		.word	1079194419
 1182 02e0 00F07F45 		.word	1166012416
 1183 02e4 00000000 		.word	.LC0
 1184 02e8 00000000 		.word	adc_acc
 1185 02ec 00806640 		.word	1080459264
 1186 02f0 00000000 		.word	unghi
 1187 02f4 00000000 		.word	time_prev
 1188 02f8 00000000 		.word	delta_t
 1189 02fc 00000000 		.word	unghi_anterior
 1190 0300 00007A44 		.word	1148846080
 1191 0304 00000000 		.word	gyro
 1192 0308 00000000 		.word	adc_raw
 1193 030c 00000000 		.word	adc_volt
 1194 0310 C3F5A83E 		.word	1051260355
 1195 0314 14000000 		.word	.LC1
 1196 0318 38000000 		.word	.LC2
 1197 031c 64000000 		.word	.LC3
 1198 0320 90000000 		.word	.LC4
 1199 0324 C0000000 		.word	.LC5
 1200 0328 F0000000 		.word	.LC6
 1201              	.LBE16:
 1202              		.cfi_endproc
ARM GAS  C:\Users\Miruna\AppData\Local\Temp\ccbGg7G6.s 			page 38


 1203              	.LFE70:
 1205              		.global	time_prev
 1206              		.section	.bss.time_prev,"aw",%nobits
 1207              		.align	2
 1210              	time_prev:
 1211 0000 00000000 		.space	12
 1211      00000000 
 1211      00000000 
 1212              		.global	unghi_anterior
 1213              		.section	.bss.unghi_anterior,"aw",%nobits
 1214              		.align	2
 1217              	unghi_anterior:
 1218 0000 00000000 		.space	12
 1218      00000000 
 1218      00000000 
 1219              		.global	gyro
 1220              		.section	.bss.gyro,"aw",%nobits
 1221              		.align	2
 1224              	gyro:
 1225 0000 00000000 		.space	12
 1225      00000000 
 1225      00000000 
 1226              		.global	delta_t
 1227              		.section	.bss.delta_t,"aw",%nobits
 1228              		.align	2
 1231              	delta_t:
 1232 0000 00000000 		.space	12
 1232      00000000 
 1232      00000000 
 1233              		.global	offset
 1234              		.section	.bss.offset,"aw",%nobits
 1235              		.align	2
 1238              	offset:
 1239 0000 00000000 		.space	12
 1239      00000000 
 1239      00000000 
 1240              		.global	unghi
 1241              		.section	.bss.unghi,"aw",%nobits
 1242              		.align	2
 1245              	unghi:
 1246 0000 00000000 		.space	12
 1246      00000000 
 1246      00000000 
 1247              		.global	adc_acc
 1248              		.section	.bss.adc_acc,"aw",%nobits
 1249              		.align	2
 1252              	adc_acc:
 1253 0000 00000000 		.space	12
 1253      00000000 
 1253      00000000 
 1254              		.global	adc_volt
 1255              		.section	.bss.adc_volt,"aw",%nobits
 1256              		.align	2
 1259              	adc_volt:
 1260 0000 00000000 		.space	12
 1260      00000000 
 1260      00000000 
ARM GAS  C:\Users\Miruna\AppData\Local\Temp\ccbGg7G6.s 			page 39


 1261              		.global	adc_raw
 1262              		.section	.bss.adc_raw,"aw",%nobits
 1263              		.align	2
 1266              	adc_raw:
 1267 0000 00000000 		.space	12
 1267      00000000 
 1267      00000000 
 1268              		.global	hpcd_USB_FS
 1269              		.section	.bss.hpcd_USB_FS,"aw",%nobits
 1270              		.align	2
 1273              	hpcd_USB_FS:
 1274 0000 00000000 		.space	728
 1274      00000000 
 1274      00000000 
 1274      00000000 
 1274      00000000 
 1275              		.global	huart1
 1276              		.section	.bss.huart1,"aw",%nobits
 1277              		.align	2
 1280              	huart1:
 1281 0000 00000000 		.space	72
 1281      00000000 
 1281      00000000 
 1281      00000000 
 1281      00000000 
 1282              		.global	hadc1
 1283              		.section	.bss.hadc1,"aw",%nobits
 1284              		.align	2
 1287              	hadc1:
 1288 0000 00000000 		.space	48
 1288      00000000 
 1288      00000000 
 1288      00000000 
 1288      00000000 
 1289              		.text
 1290              	.Letext0:
 1291              		.file 3 "D:\\An3 sem2\\P2_STM\\Program\\Aplicatia_CubeCLT\\STM32CubeCLT_1.18.0\\GNU-tools-for-STM3
 1292              		.file 4 "D:\\An3 sem2\\P2_STM\\Program\\Aplicatia_CubeCLT\\STM32CubeCLT_1.18.0\\GNU-tools-for-STM3
 1293              		.file 5 "Drivers/CMSIS/Device/ST/STM32F1xx/Include/stm32f103xb.h"
 1294              		.file 6 "Drivers/CMSIS/Device/ST/STM32F1xx/Include/stm32f1xx.h"
 1295              		.file 7 "Drivers/STM32F1xx_HAL_Driver/Inc/stm32f1xx_hal_def.h"
 1296              		.file 8 "Drivers/STM32F1xx_HAL_Driver/Inc/stm32f1xx_hal_rcc.h"
 1297              		.file 9 "Drivers/STM32F1xx_HAL_Driver/Inc/stm32f1xx_hal_rcc_ex.h"
 1298              		.file 10 "Drivers/STM32F1xx_HAL_Driver/Inc/stm32f1xx_hal_dma.h"
 1299              		.file 11 "Drivers/STM32F1xx_HAL_Driver/Inc/stm32f1xx_hal_adc.h"
 1300              		.file 12 "Drivers/STM32F1xx_HAL_Driver/Inc/stm32f1xx_hal_uart.h"
 1301              		.file 13 "Drivers/STM32F1xx_HAL_Driver/Inc/stm32f1xx_ll_usb.h"
 1302              		.file 14 "Drivers/STM32F1xx_HAL_Driver/Inc/stm32f1xx_hal_pcd.h"
 1303              		.file 15 "D:\\An3 sem2\\P2_STM\\Program\\Aplicatia_CubeCLT\\STM32CubeCLT_1.18.0\\GNU-tools-for-STM
 1304              		.file 16 "D:\\An3 sem2\\P2_STM\\Program\\Aplicatia_CubeCLT\\STM32CubeCLT_1.18.0\\GNU-tools-for-STM
 1305              		.file 17 "Drivers/STM32F1xx_HAL_Driver/Inc/stm32f1xx_hal.h"
 1306              		.file 18 "<built-in>"
ARM GAS  C:\Users\Miruna\AppData\Local\Temp\ccbGg7G6.s 			page 40

